ARM GAS  C:\Users\arada\AppData\Local\Temp\ccA5l7kM.s 			page 1


   1              		.cpu cortex-m3
   2              		.eabi_attribute 20, 1
   3              		.eabi_attribute 21, 1
   4              		.eabi_attribute 23, 3
   5              		.eabi_attribute 24, 1
   6              		.eabi_attribute 25, 1
   7              		.eabi_attribute 26, 1
   8              		.eabi_attribute 30, 1
   9              		.eabi_attribute 34, 1
  10              		.eabi_attribute 18, 4
  11              		.file	"main.c"
  12              		.text
  13              	.Ltext0:
  14              		.cfi_sections	.debug_frame
  15              		.section	.text.MX_GPIO_Init,"ax",%progbits
  16              		.align	1
  17              		.arch armv7-m
  18              		.syntax unified
  19              		.thumb
  20              		.thumb_func
  21              		.fpu softvfp
  23              	MX_GPIO_Init:
  24              	.LFB81:
  25              		.file 1 "Core/Src/main.c"
   1:Core/Src/main.c **** /* USER CODE BEGIN Header */
   2:Core/Src/main.c **** /**
   3:Core/Src/main.c ****   ******************************************************************************
   4:Core/Src/main.c ****   * @file           : main.c
   5:Core/Src/main.c ****   * @brief          : Main program body
   6:Core/Src/main.c ****   ******************************************************************************
   7:Core/Src/main.c ****   * @attention
   8:Core/Src/main.c ****   *
   9:Core/Src/main.c ****   * <h2><center>&copy; Copyright (c) 2021 STMicroelectronics.
  10:Core/Src/main.c ****   * All rights reserved.</center></h2>
  11:Core/Src/main.c ****   *
  12:Core/Src/main.c ****   * This software component is licensed by ST under BSD 3-Clause license,
  13:Core/Src/main.c ****   * the "License"; You may not use this file except in compliance with the
  14:Core/Src/main.c ****   * License. You may obtain a copy of the License at:
  15:Core/Src/main.c ****   *                        opensource.org/licenses/BSD-3-Clause
  16:Core/Src/main.c ****   *
  17:Core/Src/main.c ****   ******************************************************************************
  18:Core/Src/main.c ****   */
  19:Core/Src/main.c **** /* USER CODE END Header */
  20:Core/Src/main.c **** /* Includes ------------------------------------------------------------------*/
  21:Core/Src/main.c **** #include "main.h"
  22:Core/Src/main.c **** 
  23:Core/Src/main.c **** /* Private includes ----------------------------------------------------------*/
  24:Core/Src/main.c **** /* USER CODE BEGIN Includes */
  25:Core/Src/main.c **** #include <stdio.h>
  26:Core/Src/main.c **** #include "i2c_sw\i2c_sw.h"
  27:Core/Src/main.c **** #include "ssd1306/ssd1306.h"
  28:Core/Src/main.c **** /* USER CODE END Includes */
  29:Core/Src/main.c **** 
  30:Core/Src/main.c **** /* Private typedef -----------------------------------------------------------*/
  31:Core/Src/main.c **** /* USER CODE BEGIN PTD */
  32:Core/Src/main.c **** #define PUTCHAR_PROTOTYPE int __io_putchar(int ch)
  33:Core/Src/main.c **** /* USER CODE END PTD */
ARM GAS  C:\Users\arada\AppData\Local\Temp\ccA5l7kM.s 			page 2


  34:Core/Src/main.c **** 
  35:Core/Src/main.c **** /* Private define ------------------------------------------------------------*/
  36:Core/Src/main.c **** /* USER CODE BEGIN PD */
  37:Core/Src/main.c **** #define GPIO_SW_SPI_SDI_PIN       SDI_GPIO_Port
  38:Core/Src/main.c **** #define GPIO_SW_SPI_SCK_PIN       SCK_GPIO_Port
  39:Core/Src/main.c **** #define GPIO_SW_SPI_SDI           SDI_Pin
  40:Core/Src/main.c **** #define GPIO_SW_SPI_SCK           SCK_Pin
  41:Core/Src/main.c **** 
  42:Core/Src/main.c **** #define PD_N      0b00
  43:Core/Src/main.c **** #define PD_1K     0b01
  44:Core/Src/main.c **** #define PD_100K   0b10
  45:Core/Src/main.c **** #define PD_Z      0b11
  46:Core/Src/main.c **** 
  47:Core/Src/main.c **** /* USER CODE END PD */
  48:Core/Src/main.c **** 
  49:Core/Src/main.c **** /* Private macro -------------------------------------------------------------*/
  50:Core/Src/main.c **** /* USER CODE BEGIN PM */
  51:Core/Src/main.c **** 
  52:Core/Src/main.c **** /* USER CODE END PM */
  53:Core/Src/main.c **** 
  54:Core/Src/main.c **** /* Private variables ---------------------------------------------------------*/
  55:Core/Src/main.c **** ADC_HandleTypeDef hadc1;
  56:Core/Src/main.c **** ADC_HandleTypeDef hadc2;
  57:Core/Src/main.c **** 
  58:Core/Src/main.c **** SPI_HandleTypeDef hspi2;
  59:Core/Src/main.c **** 
  60:Core/Src/main.c **** TIM_HandleTypeDef htim2;
  61:Core/Src/main.c **** 
  62:Core/Src/main.c **** UART_HandleTypeDef huart1;
  63:Core/Src/main.c **** UART_HandleTypeDef huart2;
  64:Core/Src/main.c **** 
  65:Core/Src/main.c **** /* USER CODE BEGIN PV */
  66:Core/Src/main.c **** void spi_w(uint8_t byte)
  67:Core/Src/main.c **** {
  68:Core/Src/main.c ****   for (int i = 0x80; i != 0x00; i >>= 1) 
  69:Core/Src/main.c ****   {
  70:Core/Src/main.c ****     HAL_GPIO_WritePin(SCK_GPIO_Port, SCK_Pin, GPIO_PIN_RESET);
  71:Core/Src/main.c ****     if (byte & i)
  72:Core/Src/main.c ****       HAL_GPIO_WritePin(SDI_GPIO_Port, SDI_Pin, GPIO_PIN_SET);
  73:Core/Src/main.c ****     else 
  74:Core/Src/main.c ****       HAL_GPIO_WritePin(SDI_GPIO_Port, SDI_Pin, GPIO_PIN_RESET);
  75:Core/Src/main.c ****     HAL_GPIO_WritePin(SCK_GPIO_Port, SCK_Pin, GPIO_PIN_SET);
  76:Core/Src/main.c ****   }
  77:Core/Src/main.c **** }
  78:Core/Src/main.c **** 
  79:Core/Src/main.c **** void dac_w(uint8_t cmd , uint16_t data)
  80:Core/Src/main.c **** {
  81:Core/Src/main.c ****   uint8_t buf[3];
  82:Core/Src/main.c ****   buf[0] = (data >> 12) | (cmd << 4);
  83:Core/Src/main.c ****   buf[1] = (data >> 4);
  84:Core/Src/main.c ****   buf[2] = ((data << 4) & 0xF0);
  85:Core/Src/main.c ****   for(int i = 0 ; i < 3 ; i++)
  86:Core/Src/main.c ****     spi_w(buf[i]);
  87:Core/Src/main.c **** }
  88:Core/Src/main.c **** 
  89:Core/Src/main.c **** void dac_wu(uint16_t data)
  90:Core/Src/main.c **** {
ARM GAS  C:\Users\arada\AppData\Local\Temp\ccA5l7kM.s 			page 3


  91:Core/Src/main.c ****   dac_w(0b0011 , data);
  92:Core/Src/main.c **** }
  93:Core/Src/main.c **** 
  94:Core/Src/main.c **** void dac_ctrl(uint8_t PD ,uint8_t REF ,uint8_t GAIN ,uint8_t DCEN)
  95:Core/Src/main.c **** {
  96:Core/Src/main.c ****   dac_w(0b0100 , (PD << 4 | REF << 2 | GAIN << 1 | DCEN) << 10);
  97:Core/Src/main.c **** }
  98:Core/Src/main.c **** 
  99:Core/Src/main.c **** void dac_res()
 100:Core/Src/main.c **** {
 101:Core/Src/main.c ****   dac_w(0b0100 , 1 << 15);
 102:Core/Src/main.c **** }
 103:Core/Src/main.c **** /* USER CODE END PV */
 104:Core/Src/main.c **** 
 105:Core/Src/main.c **** /* Private function prototypes -----------------------------------------------*/
 106:Core/Src/main.c **** void SystemClock_Config(void);
 107:Core/Src/main.c **** static void MX_GPIO_Init(void);
 108:Core/Src/main.c **** static void MX_ADC1_Init(void);
 109:Core/Src/main.c **** static void MX_ADC2_Init(void);
 110:Core/Src/main.c **** static void MX_TIM2_Init(void);
 111:Core/Src/main.c **** static void MX_USART1_UART_Init(void);
 112:Core/Src/main.c **** static void MX_USART2_UART_Init(void);
 113:Core/Src/main.c **** static void MX_SPI2_Init(void);
 114:Core/Src/main.c **** /* USER CODE BEGIN PFP */
 115:Core/Src/main.c **** 
 116:Core/Src/main.c **** /* USER CODE END PFP */
 117:Core/Src/main.c **** 
 118:Core/Src/main.c **** /* Private user code ---------------------------------------------------------*/
 119:Core/Src/main.c **** /* USER CODE BEGIN 0 */
 120:Core/Src/main.c **** 
 121:Core/Src/main.c **** /* USER CODE END 0 */
 122:Core/Src/main.c **** 
 123:Core/Src/main.c **** /**
 124:Core/Src/main.c ****   * @brief  The application entry point.
 125:Core/Src/main.c ****   * @retval int
 126:Core/Src/main.c ****   */
 127:Core/Src/main.c **** int main(void)
 128:Core/Src/main.c **** {
 129:Core/Src/main.c ****   /* USER CODE BEGIN 1 */
 130:Core/Src/main.c ****   /* USER CODE END 1 */
 131:Core/Src/main.c **** 
 132:Core/Src/main.c ****   /* MCU Configuration--------------------------------------------------------*/
 133:Core/Src/main.c **** 
 134:Core/Src/main.c ****   /* Reset of all peripherals, Initializes the Flash interface and the Systick. */
 135:Core/Src/main.c ****   HAL_Init();
 136:Core/Src/main.c **** 
 137:Core/Src/main.c ****   /* USER CODE BEGIN Init */
 138:Core/Src/main.c **** 
 139:Core/Src/main.c ****   /* USER CODE END Init */
 140:Core/Src/main.c **** 
 141:Core/Src/main.c ****   /* Configure the system clock */
 142:Core/Src/main.c ****   SystemClock_Config();
 143:Core/Src/main.c **** 
 144:Core/Src/main.c ****   /* USER CODE BEGIN SysInit */
 145:Core/Src/main.c **** 
 146:Core/Src/main.c ****   /* USER CODE END SysInit */
 147:Core/Src/main.c **** 
ARM GAS  C:\Users\arada\AppData\Local\Temp\ccA5l7kM.s 			page 4


 148:Core/Src/main.c ****   /* Initialize all configured peripherals */
 149:Core/Src/main.c ****   MX_GPIO_Init();
 150:Core/Src/main.c ****   MX_ADC1_Init();
 151:Core/Src/main.c ****   MX_ADC2_Init();
 152:Core/Src/main.c ****   MX_TIM2_Init();
 153:Core/Src/main.c ****   MX_USART1_UART_Init();
 154:Core/Src/main.c ****   MX_USART2_UART_Init();
 155:Core/Src/main.c ****   MX_SPI2_Init();
 156:Core/Src/main.c ****   /* USER CODE BEGIN 2 */
 157:Core/Src/main.c ****   HAL_ADCEx_Calibration_Start(&hadc1);
 158:Core/Src/main.c **** 
 159:Core/Src/main.c ****   uint32_t millis = 0;
 160:Core/Src/main.c ****   HAL_GPIO_WritePin(DAC_1_GPIO_Port, DAC_1_Pin, GPIO_PIN_RESET);
 161:Core/Src/main.c ****   dac_ctrl(PD_N , 1 , 1 , 0);
 162:Core/Src/main.c ****   HAL_GPIO_WritePin(DAC_1_GPIO_Port, DAC_1_Pin, GPIO_PIN_SET);
 163:Core/Src/main.c ****   HAL_GPIO_WritePin(DAC_2_GPIO_Port, DAC_2_Pin, GPIO_PIN_RESET);
 164:Core/Src/main.c ****   dac_ctrl(PD_N , 1 , 1 , 0);
 165:Core/Src/main.c ****   HAL_GPIO_WritePin(DAC_2_GPIO_Port, DAC_2_Pin, GPIO_PIN_SET);
 166:Core/Src/main.c ****   HAL_GPIO_WritePin(DAC_3_GPIO_Port, DAC_3_Pin, GPIO_PIN_RESET);
 167:Core/Src/main.c ****   dac_ctrl(PD_N , 1 , 1 , 0);
 168:Core/Src/main.c ****   HAL_GPIO_WritePin(DAC_3_GPIO_Port, DAC_3_Pin, GPIO_PIN_SET);
 169:Core/Src/main.c ****   /*SW_I2C_initial();
 170:Core/Src/main.c ****   i2c_port_initial(SW_I2C1);
 171:Core/Src/main.c ****   ssd1306_Init();*/
 172:Core/Src/main.c ****   /* USER CODE END 2 */
 173:Core/Src/main.c **** 
 174:Core/Src/main.c ****   /* Infinite loop */
 175:Core/Src/main.c ****   /* USER CODE BEGIN WHILE */
 176:Core/Src/main.c ****   while (1)
 177:Core/Src/main.c ****   {
 178:Core/Src/main.c ****     /* USER CODE END WHILE */
 179:Core/Src/main.c **** 
 180:Core/Src/main.c ****     /* USER CODE BEGIN 3 */
 181:Core/Src/main.c ****     /*HAL_GPIO_WritePin(DAC_1_GPIO_Port, DAC_1_Pin, GPIO_PIN_RESET);
 182:Core/Src/main.c ****     dac_wu(0xFFFF);
 183:Core/Src/main.c ****     HAL_GPIO_WritePin(DAC_1_GPIO_Port, DAC_1_Pin, GPIO_PIN_SET);
 184:Core/Src/main.c **** 
 185:Core/Src/main.c ****     HAL_Delay(500);
 186:Core/Src/main.c **** 
 187:Core/Src/main.c ****     HAL_GPIO_WritePin(DAC_1_GPIO_Port, DAC_1_Pin, GPIO_PIN_RESET);
 188:Core/Src/main.c ****     dac_wu(0x0000);
 189:Core/Src/main.c ****     HAL_GPIO_WritePin(DAC_1_GPIO_Port, DAC_1_Pin, GPIO_PIN_SET);
 190:Core/Src/main.c **** 
 191:Core/Src/main.c ****     HAL_GPIO_WritePin(DAC_2_GPIO_Port, DAC_2_Pin, GPIO_PIN_RESET);
 192:Core/Src/main.c ****     dac_wu(0xFFFF);
 193:Core/Src/main.c ****     HAL_GPIO_WritePin(DAC_2_GPIO_Port, DAC_2_Pin, GPIO_PIN_SET);
 194:Core/Src/main.c **** 
 195:Core/Src/main.c ****     HAL_Delay(500);
 196:Core/Src/main.c **** 
 197:Core/Src/main.c ****     HAL_GPIO_WritePin(DAC_2_GPIO_Port, DAC_2_Pin, GPIO_PIN_RESET);
 198:Core/Src/main.c ****     dac_wu(0x0000);
 199:Core/Src/main.c ****     HAL_GPIO_WritePin(DAC_2_GPIO_Port, DAC_2_Pin, GPIO_PIN_SET);
 200:Core/Src/main.c **** 
 201:Core/Src/main.c ****     HAL_GPIO_WritePin(DAC_3_GPIO_Port, DAC_3_Pin, GPIO_PIN_RESET);
 202:Core/Src/main.c ****     dac_wu(0xFFFF);
 203:Core/Src/main.c ****     HAL_GPIO_WritePin(DAC_3_GPIO_Port, DAC_3_Pin, GPIO_PIN_SET);
 204:Core/Src/main.c **** 
ARM GAS  C:\Users\arada\AppData\Local\Temp\ccA5l7kM.s 			page 5


 205:Core/Src/main.c ****     HAL_Delay(500);
 206:Core/Src/main.c **** 
 207:Core/Src/main.c ****     HAL_GPIO_WritePin(DAC_3_GPIO_Port, DAC_3_Pin, GPIO_PIN_RESET);
 208:Core/Src/main.c ****     dac_wu(0x0000);
 209:Core/Src/main.c ****     HAL_GPIO_WritePin(DAC_3_GPIO_Port, DAC_3_Pin, GPIO_PIN_SET);
 210:Core/Src/main.c **** */
 211:Core/Src/main.c ****     HAL_GPIO_WritePin(DAC_2_GPIO_Port, DAC_2_Pin, GPIO_PIN_RESET);
 212:Core/Src/main.c ****     dac_wu(655 * ((HAL_GetTick()/30)%40 + 1));
 213:Core/Src/main.c ****     HAL_GPIO_WritePin(DAC_2_GPIO_Port, DAC_2_Pin, GPIO_PIN_SET);
 214:Core/Src/main.c **** 
 215:Core/Src/main.c ****     if(HAL_GetTick() - millis > 100)
 216:Core/Src/main.c ****     {
 217:Core/Src/main.c ****       HAL_GPIO_TogglePin(BUILTIN_LED_GPIO_Port, BUILTIN_LED_Pin);
 218:Core/Src/main.c ****       millis = HAL_GetTick();
 219:Core/Src/main.c ****       char out[100];
 220:Core/Src/main.c ****       sprintf(out , "%li" , millis/1000);
 221:Core/Src/main.c ****       /*ssd1306_Fill(Black);
 222:Core/Src/main.c ****       ssd1306_SetCursor(0  ,  0);
 223:Core/Src/main.c ****       ssd1306_WriteString(out, Font_11x18, White);
 224:Core/Src/main.c ****       ssd1306_UpdateScreen();*/
 225:Core/Src/main.c ****     }
 226:Core/Src/main.c ****   }
 227:Core/Src/main.c ****   /* USER CODE END 3 */
 228:Core/Src/main.c **** }
 229:Core/Src/main.c **** 
 230:Core/Src/main.c **** /**
 231:Core/Src/main.c ****   * @brief System Clock Configuration
 232:Core/Src/main.c ****   * @retval None
 233:Core/Src/main.c ****   */
 234:Core/Src/main.c **** void SystemClock_Config(void)
 235:Core/Src/main.c **** {
 236:Core/Src/main.c ****   RCC_OscInitTypeDef RCC_OscInitStruct = {0};
 237:Core/Src/main.c ****   RCC_ClkInitTypeDef RCC_ClkInitStruct = {0};
 238:Core/Src/main.c ****   RCC_PeriphCLKInitTypeDef PeriphClkInit = {0};
 239:Core/Src/main.c **** 
 240:Core/Src/main.c ****   /** Initializes the RCC Oscillators according to the specified parameters
 241:Core/Src/main.c ****   * in the RCC_OscInitTypeDef structure.
 242:Core/Src/main.c ****   */
 243:Core/Src/main.c ****   RCC_OscInitStruct.OscillatorType = RCC_OSCILLATORTYPE_HSE;
 244:Core/Src/main.c ****   RCC_OscInitStruct.HSEState = RCC_HSE_ON;
 245:Core/Src/main.c ****   RCC_OscInitStruct.HSEPredivValue = RCC_HSE_PREDIV_DIV1;
 246:Core/Src/main.c ****   RCC_OscInitStruct.HSIState = RCC_HSI_ON;
 247:Core/Src/main.c ****   RCC_OscInitStruct.PLL.PLLState = RCC_PLL_ON;
 248:Core/Src/main.c ****   RCC_OscInitStruct.PLL.PLLSource = RCC_PLLSOURCE_HSE;
 249:Core/Src/main.c ****   RCC_OscInitStruct.PLL.PLLMUL = RCC_PLL_MUL9;
 250:Core/Src/main.c ****   if (HAL_RCC_OscConfig(&RCC_OscInitStruct) != HAL_OK)
 251:Core/Src/main.c ****   {
 252:Core/Src/main.c ****     Error_Handler();
 253:Core/Src/main.c ****   }
 254:Core/Src/main.c ****   /** Initializes the CPU, AHB and APB buses clocks
 255:Core/Src/main.c ****   */
 256:Core/Src/main.c ****   RCC_ClkInitStruct.ClockType = RCC_CLOCKTYPE_HCLK|RCC_CLOCKTYPE_SYSCLK
 257:Core/Src/main.c ****                               |RCC_CLOCKTYPE_PCLK1|RCC_CLOCKTYPE_PCLK2;
 258:Core/Src/main.c ****   RCC_ClkInitStruct.SYSCLKSource = RCC_SYSCLKSOURCE_PLLCLK;
 259:Core/Src/main.c ****   RCC_ClkInitStruct.AHBCLKDivider = RCC_SYSCLK_DIV1;
 260:Core/Src/main.c ****   RCC_ClkInitStruct.APB1CLKDivider = RCC_HCLK_DIV2;
 261:Core/Src/main.c ****   RCC_ClkInitStruct.APB2CLKDivider = RCC_HCLK_DIV1;
ARM GAS  C:\Users\arada\AppData\Local\Temp\ccA5l7kM.s 			page 6


 262:Core/Src/main.c **** 
 263:Core/Src/main.c ****   if (HAL_RCC_ClockConfig(&RCC_ClkInitStruct, FLASH_LATENCY_2) != HAL_OK)
 264:Core/Src/main.c ****   {
 265:Core/Src/main.c ****     Error_Handler();
 266:Core/Src/main.c ****   }
 267:Core/Src/main.c ****   PeriphClkInit.PeriphClockSelection = RCC_PERIPHCLK_ADC;
 268:Core/Src/main.c ****   PeriphClkInit.AdcClockSelection = RCC_ADCPCLK2_DIV6;
 269:Core/Src/main.c ****   if (HAL_RCCEx_PeriphCLKConfig(&PeriphClkInit) != HAL_OK)
 270:Core/Src/main.c ****   {
 271:Core/Src/main.c ****     Error_Handler();
 272:Core/Src/main.c ****   }
 273:Core/Src/main.c **** }
 274:Core/Src/main.c **** 
 275:Core/Src/main.c **** /**
 276:Core/Src/main.c ****   * @brief ADC1 Initialization Function
 277:Core/Src/main.c ****   * @param None
 278:Core/Src/main.c ****   * @retval None
 279:Core/Src/main.c ****   */
 280:Core/Src/main.c **** static void MX_ADC1_Init(void)
 281:Core/Src/main.c **** {
 282:Core/Src/main.c **** 
 283:Core/Src/main.c ****   /* USER CODE BEGIN ADC1_Init 0 */
 284:Core/Src/main.c **** 
 285:Core/Src/main.c ****   /* USER CODE END ADC1_Init 0 */
 286:Core/Src/main.c **** 
 287:Core/Src/main.c ****   ADC_ChannelConfTypeDef sConfig = {0};
 288:Core/Src/main.c **** 
 289:Core/Src/main.c ****   /* USER CODE BEGIN ADC1_Init 1 */
 290:Core/Src/main.c **** 
 291:Core/Src/main.c ****   /* USER CODE END ADC1_Init 1 */
 292:Core/Src/main.c ****   /** Common config
 293:Core/Src/main.c ****   */
 294:Core/Src/main.c ****   hadc1.Instance = ADC1;
 295:Core/Src/main.c ****   hadc1.Init.ScanConvMode = ADC_SCAN_ENABLE;
 296:Core/Src/main.c ****   hadc1.Init.ContinuousConvMode = ENABLE;
 297:Core/Src/main.c ****   hadc1.Init.DiscontinuousConvMode = DISABLE;
 298:Core/Src/main.c ****   hadc1.Init.ExternalTrigConv = ADC_SOFTWARE_START;
 299:Core/Src/main.c ****   hadc1.Init.DataAlign = ADC_DATAALIGN_RIGHT;
 300:Core/Src/main.c ****   hadc1.Init.NbrOfConversion = 3;
 301:Core/Src/main.c ****   if (HAL_ADC_Init(&hadc1) != HAL_OK)
 302:Core/Src/main.c ****   {
 303:Core/Src/main.c ****     Error_Handler();
 304:Core/Src/main.c ****   }
 305:Core/Src/main.c ****   /** Configure Regular Channel
 306:Core/Src/main.c ****   */
 307:Core/Src/main.c ****   sConfig.Channel = ADC_CHANNEL_0;
 308:Core/Src/main.c ****   sConfig.Rank = ADC_REGULAR_RANK_1;
 309:Core/Src/main.c ****   sConfig.SamplingTime = ADC_SAMPLETIME_239CYCLES_5;
 310:Core/Src/main.c ****   if (HAL_ADC_ConfigChannel(&hadc1, &sConfig) != HAL_OK)
 311:Core/Src/main.c ****   {
 312:Core/Src/main.c ****     Error_Handler();
 313:Core/Src/main.c ****   }
 314:Core/Src/main.c ****   /** Configure Regular Channel
 315:Core/Src/main.c ****   */
 316:Core/Src/main.c ****   sConfig.Rank = ADC_REGULAR_RANK_2;
 317:Core/Src/main.c ****   sConfig.SamplingTime = ADC_SAMPLETIME_1CYCLE_5;
 318:Core/Src/main.c ****   if (HAL_ADC_ConfigChannel(&hadc1, &sConfig) != HAL_OK)
ARM GAS  C:\Users\arada\AppData\Local\Temp\ccA5l7kM.s 			page 7


 319:Core/Src/main.c ****   {
 320:Core/Src/main.c ****     Error_Handler();
 321:Core/Src/main.c ****   }
 322:Core/Src/main.c ****   /** Configure Regular Channel
 323:Core/Src/main.c ****   */
 324:Core/Src/main.c ****   sConfig.Rank = ADC_REGULAR_RANK_3;
 325:Core/Src/main.c ****   if (HAL_ADC_ConfigChannel(&hadc1, &sConfig) != HAL_OK)
 326:Core/Src/main.c ****   {
 327:Core/Src/main.c ****     Error_Handler();
 328:Core/Src/main.c ****   }
 329:Core/Src/main.c ****   /* USER CODE BEGIN ADC1_Init 2 */
 330:Core/Src/main.c **** 
 331:Core/Src/main.c ****   /* USER CODE END ADC1_Init 2 */
 332:Core/Src/main.c **** 
 333:Core/Src/main.c **** }
 334:Core/Src/main.c **** 
 335:Core/Src/main.c **** /**
 336:Core/Src/main.c ****   * @brief ADC2 Initialization Function
 337:Core/Src/main.c ****   * @param None
 338:Core/Src/main.c ****   * @retval None
 339:Core/Src/main.c ****   */
 340:Core/Src/main.c **** static void MX_ADC2_Init(void)
 341:Core/Src/main.c **** {
 342:Core/Src/main.c **** 
 343:Core/Src/main.c ****   /* USER CODE BEGIN ADC2_Init 0 */
 344:Core/Src/main.c **** 
 345:Core/Src/main.c ****   /* USER CODE END ADC2_Init 0 */
 346:Core/Src/main.c **** 
 347:Core/Src/main.c ****   ADC_ChannelConfTypeDef sConfig = {0};
 348:Core/Src/main.c **** 
 349:Core/Src/main.c ****   /* USER CODE BEGIN ADC2_Init 1 */
 350:Core/Src/main.c **** 
 351:Core/Src/main.c ****   /* USER CODE END ADC2_Init 1 */
 352:Core/Src/main.c ****   /** Common config
 353:Core/Src/main.c ****   */
 354:Core/Src/main.c ****   hadc2.Instance = ADC2;
 355:Core/Src/main.c ****   hadc2.Init.ScanConvMode = ADC_SCAN_ENABLE;
 356:Core/Src/main.c ****   hadc2.Init.ContinuousConvMode = DISABLE;
 357:Core/Src/main.c ****   hadc2.Init.DiscontinuousConvMode = DISABLE;
 358:Core/Src/main.c ****   hadc2.Init.ExternalTrigConv = ADC_SOFTWARE_START;
 359:Core/Src/main.c ****   hadc2.Init.DataAlign = ADC_DATAALIGN_RIGHT;
 360:Core/Src/main.c ****   hadc2.Init.NbrOfConversion = 3;
 361:Core/Src/main.c ****   if (HAL_ADC_Init(&hadc2) != HAL_OK)
 362:Core/Src/main.c ****   {
 363:Core/Src/main.c ****     Error_Handler();
 364:Core/Src/main.c ****   }
 365:Core/Src/main.c ****   /** Configure Regular Channel
 366:Core/Src/main.c ****   */
 367:Core/Src/main.c ****   sConfig.Channel = ADC_CHANNEL_4;
 368:Core/Src/main.c ****   sConfig.Rank = ADC_REGULAR_RANK_1;
 369:Core/Src/main.c ****   sConfig.SamplingTime = ADC_SAMPLETIME_239CYCLES_5;
 370:Core/Src/main.c ****   if (HAL_ADC_ConfigChannel(&hadc2, &sConfig) != HAL_OK)
 371:Core/Src/main.c ****   {
 372:Core/Src/main.c ****     Error_Handler();
 373:Core/Src/main.c ****   }
 374:Core/Src/main.c ****   /** Configure Regular Channel
 375:Core/Src/main.c ****   */
ARM GAS  C:\Users\arada\AppData\Local\Temp\ccA5l7kM.s 			page 8


 376:Core/Src/main.c ****   sConfig.Channel = ADC_CHANNEL_5;
 377:Core/Src/main.c ****   sConfig.Rank = ADC_REGULAR_RANK_2;
 378:Core/Src/main.c ****   if (HAL_ADC_ConfigChannel(&hadc2, &sConfig) != HAL_OK)
 379:Core/Src/main.c ****   {
 380:Core/Src/main.c ****     Error_Handler();
 381:Core/Src/main.c ****   }
 382:Core/Src/main.c ****   /** Configure Regular Channel
 383:Core/Src/main.c ****   */
 384:Core/Src/main.c ****   sConfig.Channel = ADC_CHANNEL_6;
 385:Core/Src/main.c ****   sConfig.Rank = ADC_REGULAR_RANK_3;
 386:Core/Src/main.c ****   if (HAL_ADC_ConfigChannel(&hadc2, &sConfig) != HAL_OK)
 387:Core/Src/main.c ****   {
 388:Core/Src/main.c ****     Error_Handler();
 389:Core/Src/main.c ****   }
 390:Core/Src/main.c ****   /* USER CODE BEGIN ADC2_Init 2 */
 391:Core/Src/main.c **** 
 392:Core/Src/main.c ****   /* USER CODE END ADC2_Init 2 */
 393:Core/Src/main.c **** 
 394:Core/Src/main.c **** }
 395:Core/Src/main.c **** 
 396:Core/Src/main.c **** /**
 397:Core/Src/main.c ****   * @brief SPI2 Initialization Function
 398:Core/Src/main.c ****   * @param None
 399:Core/Src/main.c ****   * @retval None
 400:Core/Src/main.c ****   */
 401:Core/Src/main.c **** static void MX_SPI2_Init(void)
 402:Core/Src/main.c **** {
 403:Core/Src/main.c **** 
 404:Core/Src/main.c ****   /* USER CODE BEGIN SPI2_Init 0 */
 405:Core/Src/main.c **** 
 406:Core/Src/main.c ****   /* USER CODE END SPI2_Init 0 */
 407:Core/Src/main.c **** 
 408:Core/Src/main.c ****   /* USER CODE BEGIN SPI2_Init 1 */
 409:Core/Src/main.c **** 
 410:Core/Src/main.c ****   /* USER CODE END SPI2_Init 1 */
 411:Core/Src/main.c ****   /* SPI2 parameter configuration*/
 412:Core/Src/main.c ****   hspi2.Instance = SPI2;
 413:Core/Src/main.c ****   hspi2.Init.Mode = SPI_MODE_MASTER;
 414:Core/Src/main.c ****   hspi2.Init.Direction = SPI_DIRECTION_2LINES;
 415:Core/Src/main.c ****   hspi2.Init.DataSize = SPI_DATASIZE_8BIT;
 416:Core/Src/main.c ****   hspi2.Init.CLKPolarity = SPI_POLARITY_LOW;
 417:Core/Src/main.c ****   hspi2.Init.CLKPhase = SPI_PHASE_1EDGE;
 418:Core/Src/main.c ****   hspi2.Init.NSS = SPI_NSS_HARD_OUTPUT;
 419:Core/Src/main.c ****   hspi2.Init.BaudRatePrescaler = SPI_BAUDRATEPRESCALER_2;
 420:Core/Src/main.c ****   hspi2.Init.FirstBit = SPI_FIRSTBIT_MSB;
 421:Core/Src/main.c ****   hspi2.Init.TIMode = SPI_TIMODE_DISABLE;
 422:Core/Src/main.c ****   hspi2.Init.CRCCalculation = SPI_CRCCALCULATION_DISABLE;
 423:Core/Src/main.c ****   hspi2.Init.CRCPolynomial = 10;
 424:Core/Src/main.c ****   if (HAL_SPI_Init(&hspi2) != HAL_OK)
 425:Core/Src/main.c ****   {
 426:Core/Src/main.c ****     Error_Handler();
 427:Core/Src/main.c ****   }
 428:Core/Src/main.c ****   /* USER CODE BEGIN SPI2_Init 2 */
 429:Core/Src/main.c **** 
 430:Core/Src/main.c ****   /* USER CODE END SPI2_Init 2 */
 431:Core/Src/main.c **** 
 432:Core/Src/main.c **** }
ARM GAS  C:\Users\arada\AppData\Local\Temp\ccA5l7kM.s 			page 9


 433:Core/Src/main.c **** 
 434:Core/Src/main.c **** /**
 435:Core/Src/main.c ****   * @brief TIM2 Initialization Function
 436:Core/Src/main.c ****   * @param None
 437:Core/Src/main.c ****   * @retval None
 438:Core/Src/main.c ****   */
 439:Core/Src/main.c **** static void MX_TIM2_Init(void)
 440:Core/Src/main.c **** {
 441:Core/Src/main.c **** 
 442:Core/Src/main.c ****   /* USER CODE BEGIN TIM2_Init 0 */
 443:Core/Src/main.c **** 
 444:Core/Src/main.c ****   /* USER CODE END TIM2_Init 0 */
 445:Core/Src/main.c **** 
 446:Core/Src/main.c ****   TIM_ClockConfigTypeDef sClockSourceConfig = {0};
 447:Core/Src/main.c ****   TIM_SlaveConfigTypeDef sSlaveConfig = {0};
 448:Core/Src/main.c ****   TIM_MasterConfigTypeDef sMasterConfig = {0};
 449:Core/Src/main.c **** 
 450:Core/Src/main.c ****   /* USER CODE BEGIN TIM2_Init 1 */
 451:Core/Src/main.c **** 
 452:Core/Src/main.c ****   /* USER CODE END TIM2_Init 1 */
 453:Core/Src/main.c ****   htim2.Instance = TIM2;
 454:Core/Src/main.c ****   htim2.Init.Prescaler = 0;
 455:Core/Src/main.c ****   htim2.Init.CounterMode = TIM_COUNTERMODE_UP;
 456:Core/Src/main.c ****   htim2.Init.Period = 65535;
 457:Core/Src/main.c ****   htim2.Init.ClockDivision = TIM_CLOCKDIVISION_DIV1;
 458:Core/Src/main.c ****   htim2.Init.AutoReloadPreload = TIM_AUTORELOAD_PRELOAD_DISABLE;
 459:Core/Src/main.c ****   if (HAL_TIM_Base_Init(&htim2) != HAL_OK)
 460:Core/Src/main.c ****   {
 461:Core/Src/main.c ****     Error_Handler();
 462:Core/Src/main.c ****   }
 463:Core/Src/main.c ****   sClockSourceConfig.ClockSource = TIM_CLOCKSOURCE_INTERNAL;
 464:Core/Src/main.c ****   if (HAL_TIM_ConfigClockSource(&htim2, &sClockSourceConfig) != HAL_OK)
 465:Core/Src/main.c ****   {
 466:Core/Src/main.c ****     Error_Handler();
 467:Core/Src/main.c ****   }
 468:Core/Src/main.c ****   sSlaveConfig.SlaveMode = TIM_SLAVEMODE_DISABLE;
 469:Core/Src/main.c ****   sSlaveConfig.InputTrigger = TIM_TS_ITR0;
 470:Core/Src/main.c ****   if (HAL_TIM_SlaveConfigSynchro(&htim2, &sSlaveConfig) != HAL_OK)
 471:Core/Src/main.c ****   {
 472:Core/Src/main.c ****     Error_Handler();
 473:Core/Src/main.c ****   }
 474:Core/Src/main.c ****   sMasterConfig.MasterOutputTrigger = TIM_TRGO_RESET;
 475:Core/Src/main.c ****   sMasterConfig.MasterSlaveMode = TIM_MASTERSLAVEMODE_DISABLE;
 476:Core/Src/main.c ****   if (HAL_TIMEx_MasterConfigSynchronization(&htim2, &sMasterConfig) != HAL_OK)
 477:Core/Src/main.c ****   {
 478:Core/Src/main.c ****     Error_Handler();
 479:Core/Src/main.c ****   }
 480:Core/Src/main.c ****   /* USER CODE BEGIN TIM2_Init 2 */
 481:Core/Src/main.c **** 
 482:Core/Src/main.c ****   /* USER CODE END TIM2_Init 2 */
 483:Core/Src/main.c **** 
 484:Core/Src/main.c **** }
 485:Core/Src/main.c **** 
 486:Core/Src/main.c **** /**
 487:Core/Src/main.c ****   * @brief USART1 Initialization Function
 488:Core/Src/main.c ****   * @param None
 489:Core/Src/main.c ****   * @retval None
ARM GAS  C:\Users\arada\AppData\Local\Temp\ccA5l7kM.s 			page 10


 490:Core/Src/main.c ****   */
 491:Core/Src/main.c **** static void MX_USART1_UART_Init(void)
 492:Core/Src/main.c **** {
 493:Core/Src/main.c **** 
 494:Core/Src/main.c ****   /* USER CODE BEGIN USART1_Init 0 */
 495:Core/Src/main.c **** 
 496:Core/Src/main.c ****   /* USER CODE END USART1_Init 0 */
 497:Core/Src/main.c **** 
 498:Core/Src/main.c ****   /* USER CODE BEGIN USART1_Init 1 */
 499:Core/Src/main.c **** 
 500:Core/Src/main.c ****   /* USER CODE END USART1_Init 1 */
 501:Core/Src/main.c ****   huart1.Instance = USART1;
 502:Core/Src/main.c ****   huart1.Init.BaudRate = 115200;
 503:Core/Src/main.c ****   huart1.Init.WordLength = UART_WORDLENGTH_8B;
 504:Core/Src/main.c ****   huart1.Init.StopBits = UART_STOPBITS_1;
 505:Core/Src/main.c ****   huart1.Init.Parity = UART_PARITY_NONE;
 506:Core/Src/main.c ****   huart1.Init.Mode = UART_MODE_TX_RX;
 507:Core/Src/main.c ****   huart1.Init.HwFlowCtl = UART_HWCONTROL_NONE;
 508:Core/Src/main.c ****   huart1.Init.OverSampling = UART_OVERSAMPLING_16;
 509:Core/Src/main.c ****   if (HAL_UART_Init(&huart1) != HAL_OK)
 510:Core/Src/main.c ****   {
 511:Core/Src/main.c ****     Error_Handler();
 512:Core/Src/main.c ****   }
 513:Core/Src/main.c ****   /* USER CODE BEGIN USART1_Init 2 */
 514:Core/Src/main.c **** 
 515:Core/Src/main.c ****   /* USER CODE END USART1_Init 2 */
 516:Core/Src/main.c **** 
 517:Core/Src/main.c **** }
 518:Core/Src/main.c **** 
 519:Core/Src/main.c **** /**
 520:Core/Src/main.c ****   * @brief USART2 Initialization Function
 521:Core/Src/main.c ****   * @param None
 522:Core/Src/main.c ****   * @retval None
 523:Core/Src/main.c ****   */
 524:Core/Src/main.c **** static void MX_USART2_UART_Init(void)
 525:Core/Src/main.c **** {
 526:Core/Src/main.c **** 
 527:Core/Src/main.c ****   /* USER CODE BEGIN USART2_Init 0 */
 528:Core/Src/main.c **** 
 529:Core/Src/main.c ****   /* USER CODE END USART2_Init 0 */
 530:Core/Src/main.c **** 
 531:Core/Src/main.c ****   /* USER CODE BEGIN USART2_Init 1 */
 532:Core/Src/main.c **** 
 533:Core/Src/main.c ****   /* USER CODE END USART2_Init 1 */
 534:Core/Src/main.c ****   huart2.Instance = USART2;
 535:Core/Src/main.c ****   huart2.Init.BaudRate = 115200;
 536:Core/Src/main.c ****   huart2.Init.WordLength = UART_WORDLENGTH_8B;
 537:Core/Src/main.c ****   huart2.Init.StopBits = UART_STOPBITS_1;
 538:Core/Src/main.c ****   huart2.Init.Parity = UART_PARITY_NONE;
 539:Core/Src/main.c ****   huart2.Init.Mode = UART_MODE_TX_RX;
 540:Core/Src/main.c ****   huart2.Init.HwFlowCtl = UART_HWCONTROL_NONE;
 541:Core/Src/main.c ****   huart2.Init.OverSampling = UART_OVERSAMPLING_16;
 542:Core/Src/main.c ****   if (HAL_UART_Init(&huart2) != HAL_OK)
 543:Core/Src/main.c ****   {
 544:Core/Src/main.c ****     Error_Handler();
 545:Core/Src/main.c ****   }
 546:Core/Src/main.c ****   /* USER CODE BEGIN USART2_Init 2 */
ARM GAS  C:\Users\arada\AppData\Local\Temp\ccA5l7kM.s 			page 11


 547:Core/Src/main.c **** 
 548:Core/Src/main.c ****   /* USER CODE END USART2_Init 2 */
 549:Core/Src/main.c **** 
 550:Core/Src/main.c **** }
 551:Core/Src/main.c **** 
 552:Core/Src/main.c **** /**
 553:Core/Src/main.c ****   * @brief GPIO Initialization Function
 554:Core/Src/main.c ****   * @param None
 555:Core/Src/main.c ****   * @retval None
 556:Core/Src/main.c ****   */
 557:Core/Src/main.c **** static void MX_GPIO_Init(void)
 558:Core/Src/main.c **** {
  26              		.loc 1 558 1 view -0
  27              		.cfi_startproc
  28              		@ args = 0, pretend = 0, frame = 32
  29              		@ frame_needed = 0, uses_anonymous_args = 0
  30 0000 2DE9F041 		push	{r4, r5, r6, r7, r8, lr}
  31              	.LCFI0:
  32              		.cfi_def_cfa_offset 24
  33              		.cfi_offset 4, -24
  34              		.cfi_offset 5, -20
  35              		.cfi_offset 6, -16
  36              		.cfi_offset 7, -12
  37              		.cfi_offset 8, -8
  38              		.cfi_offset 14, -4
  39 0004 88B0     		sub	sp, sp, #32
  40              	.LCFI1:
  41              		.cfi_def_cfa_offset 56
 559:Core/Src/main.c ****   GPIO_InitTypeDef GPIO_InitStruct = {0};
  42              		.loc 1 559 3 view .LVU1
  43              		.loc 1 559 20 is_stmt 0 view .LVU2
  44 0006 0024     		movs	r4, #0
  45 0008 0494     		str	r4, [sp, #16]
  46 000a 0594     		str	r4, [sp, #20]
  47 000c 0694     		str	r4, [sp, #24]
  48 000e 0794     		str	r4, [sp, #28]
 560:Core/Src/main.c **** 
 561:Core/Src/main.c ****   /* GPIO Ports Clock Enable */
 562:Core/Src/main.c ****   __HAL_RCC_GPIOD_CLK_ENABLE();
  49              		.loc 1 562 3 is_stmt 1 view .LVU3
  50              	.LBB2:
  51              		.loc 1 562 3 view .LVU4
  52              		.loc 1 562 3 view .LVU5
  53 0010 2B4B     		ldr	r3, .L3
  54 0012 9A69     		ldr	r2, [r3, #24]
  55 0014 42F02002 		orr	r2, r2, #32
  56 0018 9A61     		str	r2, [r3, #24]
  57              		.loc 1 562 3 view .LVU6
  58 001a 9A69     		ldr	r2, [r3, #24]
  59 001c 02F02002 		and	r2, r2, #32
  60 0020 0192     		str	r2, [sp, #4]
  61              		.loc 1 562 3 view .LVU7
  62 0022 019A     		ldr	r2, [sp, #4]
  63              	.LBE2:
  64              		.loc 1 562 3 view .LVU8
 563:Core/Src/main.c ****   __HAL_RCC_GPIOA_CLK_ENABLE();
  65              		.loc 1 563 3 view .LVU9
ARM GAS  C:\Users\arada\AppData\Local\Temp\ccA5l7kM.s 			page 12


  66              	.LBB3:
  67              		.loc 1 563 3 view .LVU10
  68              		.loc 1 563 3 view .LVU11
  69 0024 9A69     		ldr	r2, [r3, #24]
  70 0026 42F00402 		orr	r2, r2, #4
  71 002a 9A61     		str	r2, [r3, #24]
  72              		.loc 1 563 3 view .LVU12
  73 002c 9A69     		ldr	r2, [r3, #24]
  74 002e 02F00402 		and	r2, r2, #4
  75 0032 0292     		str	r2, [sp, #8]
  76              		.loc 1 563 3 view .LVU13
  77 0034 029A     		ldr	r2, [sp, #8]
  78              	.LBE3:
  79              		.loc 1 563 3 view .LVU14
 564:Core/Src/main.c ****   __HAL_RCC_GPIOB_CLK_ENABLE();
  80              		.loc 1 564 3 view .LVU15
  81              	.LBB4:
  82              		.loc 1 564 3 view .LVU16
  83              		.loc 1 564 3 view .LVU17
  84 0036 9A69     		ldr	r2, [r3, #24]
  85 0038 42F00802 		orr	r2, r2, #8
  86 003c 9A61     		str	r2, [r3, #24]
  87              		.loc 1 564 3 view .LVU18
  88 003e 9B69     		ldr	r3, [r3, #24]
  89 0040 03F00803 		and	r3, r3, #8
  90 0044 0393     		str	r3, [sp, #12]
  91              		.loc 1 564 3 view .LVU19
  92 0046 039B     		ldr	r3, [sp, #12]
  93              	.LBE4:
  94              		.loc 1 564 3 view .LVU20
 565:Core/Src/main.c **** 
 566:Core/Src/main.c ****   /*Configure GPIO pin Output Level */
 567:Core/Src/main.c ****   HAL_GPIO_WritePin(BUILTIN_LED_GPIO_Port, BUILTIN_LED_Pin, GPIO_PIN_RESET);
  95              		.loc 1 567 3 view .LVU21
  96 0048 1E4F     		ldr	r7, .L3+4
  97 004a 2246     		mov	r2, r4
  98 004c 8021     		movs	r1, #128
  99 004e 3846     		mov	r0, r7
 100 0050 FFF7FEFF 		bl	HAL_GPIO_WritePin
 101              	.LVL0:
 568:Core/Src/main.c **** 
 569:Core/Src/main.c ****   /*Configure GPIO pin Output Level */
 570:Core/Src/main.c ****   HAL_GPIO_WritePin(GPIOB, PWR_OLED_Pin|OLED_RES_Pin|PWR_BLE_Pin|DAC_3_Pin
 102              		.loc 1 570 3 view .LVU22
 103 0054 1C4E     		ldr	r6, .L3+8
 104 0056 0122     		movs	r2, #1
 105 0058 40F27F71 		movw	r1, #1919
 106 005c 3046     		mov	r0, r6
 107 005e FFF7FEFF 		bl	HAL_GPIO_WritePin
 108              	.LVL1:
 571:Core/Src/main.c ****                           |SDI_Pin|SCK_Pin|SDA_Pin|SCL_Pin
 572:Core/Src/main.c ****                           |DAC_1_Pin|DAC_2_Pin, GPIO_PIN_SET);
 573:Core/Src/main.c **** 
 574:Core/Src/main.c ****   /*Configure GPIO pin : BUILTIN_LED_Pin */
 575:Core/Src/main.c ****   GPIO_InitStruct.Pin = BUILTIN_LED_Pin;
 109              		.loc 1 575 3 view .LVU23
 110              		.loc 1 575 23 is_stmt 0 view .LVU24
ARM GAS  C:\Users\arada\AppData\Local\Temp\ccA5l7kM.s 			page 13


 111 0062 8023     		movs	r3, #128
 112 0064 0493     		str	r3, [sp, #16]
 576:Core/Src/main.c ****   GPIO_InitStruct.Mode = GPIO_MODE_OUTPUT_PP;
 113              		.loc 1 576 3 is_stmt 1 view .LVU25
 114              		.loc 1 576 24 is_stmt 0 view .LVU26
 115 0066 0125     		movs	r5, #1
 116 0068 0595     		str	r5, [sp, #20]
 577:Core/Src/main.c ****   GPIO_InitStruct.Pull = GPIO_NOPULL;
 117              		.loc 1 577 3 is_stmt 1 view .LVU27
 118              		.loc 1 577 24 is_stmt 0 view .LVU28
 119 006a 0694     		str	r4, [sp, #24]
 578:Core/Src/main.c ****   GPIO_InitStruct.Speed = GPIO_SPEED_FREQ_LOW;
 120              		.loc 1 578 3 is_stmt 1 view .LVU29
 121              		.loc 1 578 25 is_stmt 0 view .LVU30
 122 006c 4FF00208 		mov	r8, #2
 123 0070 CDF81C80 		str	r8, [sp, #28]
 579:Core/Src/main.c ****   HAL_GPIO_Init(BUILTIN_LED_GPIO_Port, &GPIO_InitStruct);
 124              		.loc 1 579 3 is_stmt 1 view .LVU31
 125 0074 04A9     		add	r1, sp, #16
 126 0076 3846     		mov	r0, r7
 127 0078 FFF7FEFF 		bl	HAL_GPIO_Init
 128              	.LVL2:
 580:Core/Src/main.c **** 
 581:Core/Src/main.c ****   /*Configure GPIO pins : PWR_OLED_Pin OLED_RES_Pin PWR_BLE_Pin DAC_3_Pin
 582:Core/Src/main.c ****                            DAC_1_Pin DAC_2_Pin */
 583:Core/Src/main.c ****   GPIO_InitStruct.Pin = PWR_OLED_Pin|OLED_RES_Pin|PWR_BLE_Pin|DAC_3_Pin
 129              		.loc 1 583 3 view .LVU32
 130              		.loc 1 583 23 is_stmt 0 view .LVU33
 131 007c 40F20773 		movw	r3, #1799
 132 0080 0493     		str	r3, [sp, #16]
 584:Core/Src/main.c ****                           |DAC_1_Pin|DAC_2_Pin;
 585:Core/Src/main.c ****   GPIO_InitStruct.Mode = GPIO_MODE_OUTPUT_PP;
 133              		.loc 1 585 3 is_stmt 1 view .LVU34
 134              		.loc 1 585 24 is_stmt 0 view .LVU35
 135 0082 0595     		str	r5, [sp, #20]
 586:Core/Src/main.c ****   GPIO_InitStruct.Pull = GPIO_PULLUP;
 136              		.loc 1 586 3 is_stmt 1 view .LVU36
 137              		.loc 1 586 24 is_stmt 0 view .LVU37
 138 0084 0695     		str	r5, [sp, #24]
 587:Core/Src/main.c ****   GPIO_InitStruct.Speed = GPIO_SPEED_FREQ_LOW;
 139              		.loc 1 587 3 is_stmt 1 view .LVU38
 140              		.loc 1 587 25 is_stmt 0 view .LVU39
 141 0086 CDF81C80 		str	r8, [sp, #28]
 588:Core/Src/main.c ****   HAL_GPIO_Init(GPIOB, &GPIO_InitStruct);
 142              		.loc 1 588 3 is_stmt 1 view .LVU40
 143 008a 04A9     		add	r1, sp, #16
 144 008c 3046     		mov	r0, r6
 145 008e FFF7FEFF 		bl	HAL_GPIO_Init
 146              	.LVL3:
 589:Core/Src/main.c **** 
 590:Core/Src/main.c ****   /*Configure GPIO pins : KEY_1_Pin KEY_2_Pin */
 591:Core/Src/main.c ****   GPIO_InitStruct.Pin = KEY_1_Pin|KEY_2_Pin;
 147              		.loc 1 591 3 view .LVU41
 148              		.loc 1 591 23 is_stmt 0 view .LVU42
 149 0092 4FF4C053 		mov	r3, #6144
 150 0096 0493     		str	r3, [sp, #16]
 592:Core/Src/main.c ****   GPIO_InitStruct.Mode = GPIO_MODE_INPUT;
ARM GAS  C:\Users\arada\AppData\Local\Temp\ccA5l7kM.s 			page 14


 151              		.loc 1 592 3 is_stmt 1 view .LVU43
 152              		.loc 1 592 24 is_stmt 0 view .LVU44
 153 0098 0594     		str	r4, [sp, #20]
 593:Core/Src/main.c ****   GPIO_InitStruct.Pull = GPIO_PULLUP;
 154              		.loc 1 593 3 is_stmt 1 view .LVU45
 155              		.loc 1 593 24 is_stmt 0 view .LVU46
 156 009a 0695     		str	r5, [sp, #24]
 594:Core/Src/main.c ****   HAL_GPIO_Init(GPIOA, &GPIO_InitStruct);
 157              		.loc 1 594 3 is_stmt 1 view .LVU47
 158 009c 04A9     		add	r1, sp, #16
 159 009e 3846     		mov	r0, r7
 160 00a0 FFF7FEFF 		bl	HAL_GPIO_Init
 161              	.LVL4:
 595:Core/Src/main.c **** 
 596:Core/Src/main.c ****   /*Configure GPIO pins : SDI_Pin SCK_Pin SDA_Pin SCL_Pin */
 597:Core/Src/main.c ****   GPIO_InitStruct.Pin = SDI_Pin|SCK_Pin|SDA_Pin|SCL_Pin;
 162              		.loc 1 597 3 view .LVU48
 163              		.loc 1 597 23 is_stmt 0 view .LVU49
 164 00a4 7823     		movs	r3, #120
 165 00a6 0493     		str	r3, [sp, #16]
 598:Core/Src/main.c ****   GPIO_InitStruct.Mode = GPIO_MODE_OUTPUT_PP;
 166              		.loc 1 598 3 is_stmt 1 view .LVU50
 167              		.loc 1 598 24 is_stmt 0 view .LVU51
 168 00a8 0595     		str	r5, [sp, #20]
 599:Core/Src/main.c ****   GPIO_InitStruct.Pull = GPIO_PULLUP;
 169              		.loc 1 599 3 is_stmt 1 view .LVU52
 170              		.loc 1 599 24 is_stmt 0 view .LVU53
 171 00aa 0695     		str	r5, [sp, #24]
 600:Core/Src/main.c ****   GPIO_InitStruct.Speed = GPIO_SPEED_FREQ_HIGH;
 172              		.loc 1 600 3 is_stmt 1 view .LVU54
 173              		.loc 1 600 25 is_stmt 0 view .LVU55
 174 00ac 0323     		movs	r3, #3
 175 00ae 0793     		str	r3, [sp, #28]
 601:Core/Src/main.c ****   HAL_GPIO_Init(GPIOB, &GPIO_InitStruct);
 176              		.loc 1 601 3 is_stmt 1 view .LVU56
 177 00b0 04A9     		add	r1, sp, #16
 178 00b2 3046     		mov	r0, r6
 179 00b4 FFF7FEFF 		bl	HAL_GPIO_Init
 180              	.LVL5:
 602:Core/Src/main.c **** 
 603:Core/Src/main.c **** }
 181              		.loc 1 603 1 is_stmt 0 view .LVU57
 182 00b8 08B0     		add	sp, sp, #32
 183              	.LCFI2:
 184              		.cfi_def_cfa_offset 24
 185              		@ sp needed
 186 00ba BDE8F081 		pop	{r4, r5, r6, r7, r8, pc}
 187              	.L4:
 188 00be 00BF     		.align	2
 189              	.L3:
 190 00c0 00100240 		.word	1073876992
 191 00c4 00080140 		.word	1073809408
 192 00c8 000C0140 		.word	1073810432
 193              		.cfi_endproc
 194              	.LFE81:
 196              		.section	.text.MX_ADC1_Init,"ax",%progbits
 197              		.align	1
ARM GAS  C:\Users\arada\AppData\Local\Temp\ccA5l7kM.s 			page 15


 198              		.syntax unified
 199              		.thumb
 200              		.thumb_func
 201              		.fpu softvfp
 203              	MX_ADC1_Init:
 204              	.LFB75:
 281:Core/Src/main.c **** 
 205              		.loc 1 281 1 is_stmt 1 view -0
 206              		.cfi_startproc
 207              		@ args = 0, pretend = 0, frame = 16
 208              		@ frame_needed = 0, uses_anonymous_args = 0
 209 0000 F0B5     		push	{r4, r5, r6, r7, lr}
 210              	.LCFI3:
 211              		.cfi_def_cfa_offset 20
 212              		.cfi_offset 4, -20
 213              		.cfi_offset 5, -16
 214              		.cfi_offset 6, -12
 215              		.cfi_offset 7, -8
 216              		.cfi_offset 14, -4
 217 0002 85B0     		sub	sp, sp, #20
 218              	.LCFI4:
 219              		.cfi_def_cfa_offset 40
 287:Core/Src/main.c **** 
 220              		.loc 1 287 3 view .LVU59
 287:Core/Src/main.c **** 
 221              		.loc 1 287 26 is_stmt 0 view .LVU60
 222 0004 0025     		movs	r5, #0
 223 0006 0195     		str	r5, [sp, #4]
 224 0008 0295     		str	r5, [sp, #8]
 225 000a 0395     		str	r5, [sp, #12]
 294:Core/Src/main.c ****   hadc1.Init.ScanConvMode = ADC_SCAN_ENABLE;
 226              		.loc 1 294 3 is_stmt 1 view .LVU61
 294:Core/Src/main.c ****   hadc1.Init.ScanConvMode = ADC_SCAN_ENABLE;
 227              		.loc 1 294 18 is_stmt 0 view .LVU62
 228 000c 134C     		ldr	r4, .L7
 229 000e 144B     		ldr	r3, .L7+4
 230 0010 2360     		str	r3, [r4]
 295:Core/Src/main.c ****   hadc1.Init.ContinuousConvMode = ENABLE;
 231              		.loc 1 295 3 is_stmt 1 view .LVU63
 295:Core/Src/main.c ****   hadc1.Init.ContinuousConvMode = ENABLE;
 232              		.loc 1 295 27 is_stmt 0 view .LVU64
 233 0012 4FF48073 		mov	r3, #256
 234 0016 A360     		str	r3, [r4, #8]
 296:Core/Src/main.c ****   hadc1.Init.DiscontinuousConvMode = DISABLE;
 235              		.loc 1 296 3 is_stmt 1 view .LVU65
 296:Core/Src/main.c ****   hadc1.Init.DiscontinuousConvMode = DISABLE;
 236              		.loc 1 296 33 is_stmt 0 view .LVU66
 237 0018 0127     		movs	r7, #1
 238 001a 2773     		strb	r7, [r4, #12]
 297:Core/Src/main.c ****   hadc1.Init.ExternalTrigConv = ADC_SOFTWARE_START;
 239              		.loc 1 297 3 is_stmt 1 view .LVU67
 297:Core/Src/main.c ****   hadc1.Init.ExternalTrigConv = ADC_SOFTWARE_START;
 240              		.loc 1 297 36 is_stmt 0 view .LVU68
 241 001c 2575     		strb	r5, [r4, #20]
 298:Core/Src/main.c ****   hadc1.Init.DataAlign = ADC_DATAALIGN_RIGHT;
 242              		.loc 1 298 3 is_stmt 1 view .LVU69
 298:Core/Src/main.c ****   hadc1.Init.DataAlign = ADC_DATAALIGN_RIGHT;
ARM GAS  C:\Users\arada\AppData\Local\Temp\ccA5l7kM.s 			page 16


 243              		.loc 1 298 31 is_stmt 0 view .LVU70
 244 001e 4FF46023 		mov	r3, #917504
 245 0022 E361     		str	r3, [r4, #28]
 299:Core/Src/main.c ****   hadc1.Init.NbrOfConversion = 3;
 246              		.loc 1 299 3 is_stmt 1 view .LVU71
 299:Core/Src/main.c ****   hadc1.Init.NbrOfConversion = 3;
 247              		.loc 1 299 24 is_stmt 0 view .LVU72
 248 0024 6560     		str	r5, [r4, #4]
 300:Core/Src/main.c ****   if (HAL_ADC_Init(&hadc1) != HAL_OK)
 249              		.loc 1 300 3 is_stmt 1 view .LVU73
 300:Core/Src/main.c ****   if (HAL_ADC_Init(&hadc1) != HAL_OK)
 250              		.loc 1 300 30 is_stmt 0 view .LVU74
 251 0026 0326     		movs	r6, #3
 252 0028 2661     		str	r6, [r4, #16]
 301:Core/Src/main.c ****   {
 253              		.loc 1 301 3 is_stmt 1 view .LVU75
 301:Core/Src/main.c ****   {
 254              		.loc 1 301 7 is_stmt 0 view .LVU76
 255 002a 2046     		mov	r0, r4
 256 002c FFF7FEFF 		bl	HAL_ADC_Init
 257              	.LVL6:
 307:Core/Src/main.c ****   sConfig.Rank = ADC_REGULAR_RANK_1;
 258              		.loc 1 307 3 is_stmt 1 view .LVU77
 307:Core/Src/main.c ****   sConfig.Rank = ADC_REGULAR_RANK_1;
 259              		.loc 1 307 19 is_stmt 0 view .LVU78
 260 0030 0195     		str	r5, [sp, #4]
 308:Core/Src/main.c ****   sConfig.SamplingTime = ADC_SAMPLETIME_239CYCLES_5;
 261              		.loc 1 308 3 is_stmt 1 view .LVU79
 308:Core/Src/main.c ****   sConfig.SamplingTime = ADC_SAMPLETIME_239CYCLES_5;
 262              		.loc 1 308 16 is_stmt 0 view .LVU80
 263 0032 0297     		str	r7, [sp, #8]
 309:Core/Src/main.c ****   if (HAL_ADC_ConfigChannel(&hadc1, &sConfig) != HAL_OK)
 264              		.loc 1 309 3 is_stmt 1 view .LVU81
 309:Core/Src/main.c ****   if (HAL_ADC_ConfigChannel(&hadc1, &sConfig) != HAL_OK)
 265              		.loc 1 309 24 is_stmt 0 view .LVU82
 266 0034 0723     		movs	r3, #7
 267 0036 0393     		str	r3, [sp, #12]
 310:Core/Src/main.c ****   {
 268              		.loc 1 310 3 is_stmt 1 view .LVU83
 310:Core/Src/main.c ****   {
 269              		.loc 1 310 7 is_stmt 0 view .LVU84
 270 0038 01A9     		add	r1, sp, #4
 271 003a 2046     		mov	r0, r4
 272 003c FFF7FEFF 		bl	HAL_ADC_ConfigChannel
 273              	.LVL7:
 316:Core/Src/main.c ****   sConfig.SamplingTime = ADC_SAMPLETIME_1CYCLE_5;
 274              		.loc 1 316 3 is_stmt 1 view .LVU85
 316:Core/Src/main.c ****   sConfig.SamplingTime = ADC_SAMPLETIME_1CYCLE_5;
 275              		.loc 1 316 16 is_stmt 0 view .LVU86
 276 0040 0223     		movs	r3, #2
 277 0042 0293     		str	r3, [sp, #8]
 317:Core/Src/main.c ****   if (HAL_ADC_ConfigChannel(&hadc1, &sConfig) != HAL_OK)
 278              		.loc 1 317 3 is_stmt 1 view .LVU87
 317:Core/Src/main.c ****   if (HAL_ADC_ConfigChannel(&hadc1, &sConfig) != HAL_OK)
 279              		.loc 1 317 24 is_stmt 0 view .LVU88
 280 0044 0395     		str	r5, [sp, #12]
 318:Core/Src/main.c ****   {
ARM GAS  C:\Users\arada\AppData\Local\Temp\ccA5l7kM.s 			page 17


 281              		.loc 1 318 3 is_stmt 1 view .LVU89
 318:Core/Src/main.c ****   {
 282              		.loc 1 318 7 is_stmt 0 view .LVU90
 283 0046 01A9     		add	r1, sp, #4
 284 0048 2046     		mov	r0, r4
 285 004a FFF7FEFF 		bl	HAL_ADC_ConfigChannel
 286              	.LVL8:
 324:Core/Src/main.c ****   if (HAL_ADC_ConfigChannel(&hadc1, &sConfig) != HAL_OK)
 287              		.loc 1 324 3 is_stmt 1 view .LVU91
 324:Core/Src/main.c ****   if (HAL_ADC_ConfigChannel(&hadc1, &sConfig) != HAL_OK)
 288              		.loc 1 324 16 is_stmt 0 view .LVU92
 289 004e 0296     		str	r6, [sp, #8]
 325:Core/Src/main.c ****   {
 290              		.loc 1 325 3 is_stmt 1 view .LVU93
 325:Core/Src/main.c ****   {
 291              		.loc 1 325 7 is_stmt 0 view .LVU94
 292 0050 01A9     		add	r1, sp, #4
 293 0052 2046     		mov	r0, r4
 294 0054 FFF7FEFF 		bl	HAL_ADC_ConfigChannel
 295              	.LVL9:
 333:Core/Src/main.c **** 
 296              		.loc 1 333 1 view .LVU95
 297 0058 05B0     		add	sp, sp, #20
 298              	.LCFI5:
 299              		.cfi_def_cfa_offset 20
 300              		@ sp needed
 301 005a F0BD     		pop	{r4, r5, r6, r7, pc}
 302              	.L8:
 303              		.align	2
 304              	.L7:
 305 005c 00000000 		.word	hadc1
 306 0060 00240140 		.word	1073816576
 307              		.cfi_endproc
 308              	.LFE75:
 310              		.section	.text.MX_ADC2_Init,"ax",%progbits
 311              		.align	1
 312              		.syntax unified
 313              		.thumb
 314              		.thumb_func
 315              		.fpu softvfp
 317              	MX_ADC2_Init:
 318              	.LFB76:
 341:Core/Src/main.c **** 
 319              		.loc 1 341 1 is_stmt 1 view -0
 320              		.cfi_startproc
 321              		@ args = 0, pretend = 0, frame = 16
 322              		@ frame_needed = 0, uses_anonymous_args = 0
 323 0000 30B5     		push	{r4, r5, lr}
 324              	.LCFI6:
 325              		.cfi_def_cfa_offset 12
 326              		.cfi_offset 4, -12
 327              		.cfi_offset 5, -8
 328              		.cfi_offset 14, -4
 329 0002 85B0     		sub	sp, sp, #20
 330              	.LCFI7:
 331              		.cfi_def_cfa_offset 32
 347:Core/Src/main.c **** 
ARM GAS  C:\Users\arada\AppData\Local\Temp\ccA5l7kM.s 			page 18


 332              		.loc 1 347 3 view .LVU97
 347:Core/Src/main.c **** 
 333              		.loc 1 347 26 is_stmt 0 view .LVU98
 334 0004 0023     		movs	r3, #0
 335 0006 0193     		str	r3, [sp, #4]
 336 0008 0293     		str	r3, [sp, #8]
 337 000a 0393     		str	r3, [sp, #12]
 354:Core/Src/main.c ****   hadc2.Init.ScanConvMode = ADC_SCAN_ENABLE;
 338              		.loc 1 354 3 is_stmt 1 view .LVU99
 354:Core/Src/main.c ****   hadc2.Init.ScanConvMode = ADC_SCAN_ENABLE;
 339              		.loc 1 354 18 is_stmt 0 view .LVU100
 340 000c 154C     		ldr	r4, .L11
 341 000e 164A     		ldr	r2, .L11+4
 342 0010 2260     		str	r2, [r4]
 355:Core/Src/main.c ****   hadc2.Init.ContinuousConvMode = DISABLE;
 343              		.loc 1 355 3 is_stmt 1 view .LVU101
 355:Core/Src/main.c ****   hadc2.Init.ContinuousConvMode = DISABLE;
 344              		.loc 1 355 27 is_stmt 0 view .LVU102
 345 0012 4FF48072 		mov	r2, #256
 346 0016 A260     		str	r2, [r4, #8]
 356:Core/Src/main.c ****   hadc2.Init.DiscontinuousConvMode = DISABLE;
 347              		.loc 1 356 3 is_stmt 1 view .LVU103
 356:Core/Src/main.c ****   hadc2.Init.DiscontinuousConvMode = DISABLE;
 348              		.loc 1 356 33 is_stmt 0 view .LVU104
 349 0018 2373     		strb	r3, [r4, #12]
 357:Core/Src/main.c ****   hadc2.Init.ExternalTrigConv = ADC_SOFTWARE_START;
 350              		.loc 1 357 3 is_stmt 1 view .LVU105
 357:Core/Src/main.c ****   hadc2.Init.ExternalTrigConv = ADC_SOFTWARE_START;
 351              		.loc 1 357 36 is_stmt 0 view .LVU106
 352 001a 2375     		strb	r3, [r4, #20]
 358:Core/Src/main.c ****   hadc2.Init.DataAlign = ADC_DATAALIGN_RIGHT;
 353              		.loc 1 358 3 is_stmt 1 view .LVU107
 358:Core/Src/main.c ****   hadc2.Init.DataAlign = ADC_DATAALIGN_RIGHT;
 354              		.loc 1 358 31 is_stmt 0 view .LVU108
 355 001c 4FF46022 		mov	r2, #917504
 356 0020 E261     		str	r2, [r4, #28]
 359:Core/Src/main.c ****   hadc2.Init.NbrOfConversion = 3;
 357              		.loc 1 359 3 is_stmt 1 view .LVU109
 359:Core/Src/main.c ****   hadc2.Init.NbrOfConversion = 3;
 358              		.loc 1 359 24 is_stmt 0 view .LVU110
 359 0022 6360     		str	r3, [r4, #4]
 360:Core/Src/main.c ****   if (HAL_ADC_Init(&hadc2) != HAL_OK)
 360              		.loc 1 360 3 is_stmt 1 view .LVU111
 360:Core/Src/main.c ****   if (HAL_ADC_Init(&hadc2) != HAL_OK)
 361              		.loc 1 360 30 is_stmt 0 view .LVU112
 362 0024 0325     		movs	r5, #3
 363 0026 2561     		str	r5, [r4, #16]
 361:Core/Src/main.c ****   {
 364              		.loc 1 361 3 is_stmt 1 view .LVU113
 361:Core/Src/main.c ****   {
 365              		.loc 1 361 7 is_stmt 0 view .LVU114
 366 0028 2046     		mov	r0, r4
 367 002a FFF7FEFF 		bl	HAL_ADC_Init
 368              	.LVL10:
 367:Core/Src/main.c ****   sConfig.Rank = ADC_REGULAR_RANK_1;
 369              		.loc 1 367 3 is_stmt 1 view .LVU115
 367:Core/Src/main.c ****   sConfig.Rank = ADC_REGULAR_RANK_1;
ARM GAS  C:\Users\arada\AppData\Local\Temp\ccA5l7kM.s 			page 19


 370              		.loc 1 367 19 is_stmt 0 view .LVU116
 371 002e 0423     		movs	r3, #4
 372 0030 0193     		str	r3, [sp, #4]
 368:Core/Src/main.c ****   sConfig.SamplingTime = ADC_SAMPLETIME_239CYCLES_5;
 373              		.loc 1 368 3 is_stmt 1 view .LVU117
 368:Core/Src/main.c ****   sConfig.SamplingTime = ADC_SAMPLETIME_239CYCLES_5;
 374              		.loc 1 368 16 is_stmt 0 view .LVU118
 375 0032 0123     		movs	r3, #1
 376 0034 0293     		str	r3, [sp, #8]
 369:Core/Src/main.c ****   if (HAL_ADC_ConfigChannel(&hadc2, &sConfig) != HAL_OK)
 377              		.loc 1 369 3 is_stmt 1 view .LVU119
 369:Core/Src/main.c ****   if (HAL_ADC_ConfigChannel(&hadc2, &sConfig) != HAL_OK)
 378              		.loc 1 369 24 is_stmt 0 view .LVU120
 379 0036 0723     		movs	r3, #7
 380 0038 0393     		str	r3, [sp, #12]
 370:Core/Src/main.c ****   {
 381              		.loc 1 370 3 is_stmt 1 view .LVU121
 370:Core/Src/main.c ****   {
 382              		.loc 1 370 7 is_stmt 0 view .LVU122
 383 003a 01A9     		add	r1, sp, #4
 384 003c 2046     		mov	r0, r4
 385 003e FFF7FEFF 		bl	HAL_ADC_ConfigChannel
 386              	.LVL11:
 376:Core/Src/main.c ****   sConfig.Rank = ADC_REGULAR_RANK_2;
 387              		.loc 1 376 3 is_stmt 1 view .LVU123
 376:Core/Src/main.c ****   sConfig.Rank = ADC_REGULAR_RANK_2;
 388              		.loc 1 376 19 is_stmt 0 view .LVU124
 389 0042 0523     		movs	r3, #5
 390 0044 0193     		str	r3, [sp, #4]
 377:Core/Src/main.c ****   if (HAL_ADC_ConfigChannel(&hadc2, &sConfig) != HAL_OK)
 391              		.loc 1 377 3 is_stmt 1 view .LVU125
 377:Core/Src/main.c ****   if (HAL_ADC_ConfigChannel(&hadc2, &sConfig) != HAL_OK)
 392              		.loc 1 377 16 is_stmt 0 view .LVU126
 393 0046 0223     		movs	r3, #2
 394 0048 0293     		str	r3, [sp, #8]
 378:Core/Src/main.c ****   {
 395              		.loc 1 378 3 is_stmt 1 view .LVU127
 378:Core/Src/main.c ****   {
 396              		.loc 1 378 7 is_stmt 0 view .LVU128
 397 004a 01A9     		add	r1, sp, #4
 398 004c 2046     		mov	r0, r4
 399 004e FFF7FEFF 		bl	HAL_ADC_ConfigChannel
 400              	.LVL12:
 384:Core/Src/main.c ****   sConfig.Rank = ADC_REGULAR_RANK_3;
 401              		.loc 1 384 3 is_stmt 1 view .LVU129
 384:Core/Src/main.c ****   sConfig.Rank = ADC_REGULAR_RANK_3;
 402              		.loc 1 384 19 is_stmt 0 view .LVU130
 403 0052 0623     		movs	r3, #6
 404 0054 0193     		str	r3, [sp, #4]
 385:Core/Src/main.c ****   if (HAL_ADC_ConfigChannel(&hadc2, &sConfig) != HAL_OK)
 405              		.loc 1 385 3 is_stmt 1 view .LVU131
 385:Core/Src/main.c ****   if (HAL_ADC_ConfigChannel(&hadc2, &sConfig) != HAL_OK)
 406              		.loc 1 385 16 is_stmt 0 view .LVU132
 407 0056 0295     		str	r5, [sp, #8]
 386:Core/Src/main.c ****   {
 408              		.loc 1 386 3 is_stmt 1 view .LVU133
 386:Core/Src/main.c ****   {
ARM GAS  C:\Users\arada\AppData\Local\Temp\ccA5l7kM.s 			page 20


 409              		.loc 1 386 7 is_stmt 0 view .LVU134
 410 0058 01A9     		add	r1, sp, #4
 411 005a 2046     		mov	r0, r4
 412 005c FFF7FEFF 		bl	HAL_ADC_ConfigChannel
 413              	.LVL13:
 394:Core/Src/main.c **** 
 414              		.loc 1 394 1 view .LVU135
 415 0060 05B0     		add	sp, sp, #20
 416              	.LCFI8:
 417              		.cfi_def_cfa_offset 12
 418              		@ sp needed
 419 0062 30BD     		pop	{r4, r5, pc}
 420              	.L12:
 421              		.align	2
 422              	.L11:
 423 0064 00000000 		.word	hadc2
 424 0068 00280140 		.word	1073817600
 425              		.cfi_endproc
 426              	.LFE76:
 428              		.section	.text.MX_TIM2_Init,"ax",%progbits
 429              		.align	1
 430              		.syntax unified
 431              		.thumb
 432              		.thumb_func
 433              		.fpu softvfp
 435              	MX_TIM2_Init:
 436              	.LFB78:
 440:Core/Src/main.c **** 
 437              		.loc 1 440 1 is_stmt 1 view -0
 438              		.cfi_startproc
 439              		@ args = 0, pretend = 0, frame = 48
 440              		@ frame_needed = 0, uses_anonymous_args = 0
 441 0000 30B5     		push	{r4, r5, lr}
 442              	.LCFI9:
 443              		.cfi_def_cfa_offset 12
 444              		.cfi_offset 4, -12
 445              		.cfi_offset 5, -8
 446              		.cfi_offset 14, -4
 447 0002 8DB0     		sub	sp, sp, #52
 448              	.LCFI10:
 449              		.cfi_def_cfa_offset 64
 446:Core/Src/main.c ****   TIM_SlaveConfigTypeDef sSlaveConfig = {0};
 450              		.loc 1 446 3 view .LVU137
 446:Core/Src/main.c ****   TIM_SlaveConfigTypeDef sSlaveConfig = {0};
 451              		.loc 1 446 26 is_stmt 0 view .LVU138
 452 0004 0024     		movs	r4, #0
 453 0006 0894     		str	r4, [sp, #32]
 454 0008 0994     		str	r4, [sp, #36]
 455 000a 0A94     		str	r4, [sp, #40]
 456 000c 0B94     		str	r4, [sp, #44]
 447:Core/Src/main.c ****   TIM_MasterConfigTypeDef sMasterConfig = {0};
 457              		.loc 1 447 3 is_stmt 1 view .LVU139
 447:Core/Src/main.c ****   TIM_MasterConfigTypeDef sMasterConfig = {0};
 458              		.loc 1 447 26 is_stmt 0 view .LVU140
 459 000e 0394     		str	r4, [sp, #12]
 460 0010 0494     		str	r4, [sp, #16]
 461 0012 0594     		str	r4, [sp, #20]
ARM GAS  C:\Users\arada\AppData\Local\Temp\ccA5l7kM.s 			page 21


 462 0014 0694     		str	r4, [sp, #24]
 463 0016 0794     		str	r4, [sp, #28]
 448:Core/Src/main.c **** 
 464              		.loc 1 448 3 is_stmt 1 view .LVU141
 448:Core/Src/main.c **** 
 465              		.loc 1 448 27 is_stmt 0 view .LVU142
 466 0018 0194     		str	r4, [sp, #4]
 467 001a 0294     		str	r4, [sp, #8]
 453:Core/Src/main.c ****   htim2.Init.Prescaler = 0;
 468              		.loc 1 453 3 is_stmt 1 view .LVU143
 453:Core/Src/main.c ****   htim2.Init.Prescaler = 0;
 469              		.loc 1 453 18 is_stmt 0 view .LVU144
 470 001c 114D     		ldr	r5, .L15
 471 001e 4FF08043 		mov	r3, #1073741824
 472 0022 2B60     		str	r3, [r5]
 454:Core/Src/main.c ****   htim2.Init.CounterMode = TIM_COUNTERMODE_UP;
 473              		.loc 1 454 3 is_stmt 1 view .LVU145
 454:Core/Src/main.c ****   htim2.Init.CounterMode = TIM_COUNTERMODE_UP;
 474              		.loc 1 454 24 is_stmt 0 view .LVU146
 475 0024 6C60     		str	r4, [r5, #4]
 455:Core/Src/main.c ****   htim2.Init.Period = 65535;
 476              		.loc 1 455 3 is_stmt 1 view .LVU147
 455:Core/Src/main.c ****   htim2.Init.Period = 65535;
 477              		.loc 1 455 26 is_stmt 0 view .LVU148
 478 0026 AC60     		str	r4, [r5, #8]
 456:Core/Src/main.c ****   htim2.Init.ClockDivision = TIM_CLOCKDIVISION_DIV1;
 479              		.loc 1 456 3 is_stmt 1 view .LVU149
 456:Core/Src/main.c ****   htim2.Init.ClockDivision = TIM_CLOCKDIVISION_DIV1;
 480              		.loc 1 456 21 is_stmt 0 view .LVU150
 481 0028 4FF6FF73 		movw	r3, #65535
 482 002c EB60     		str	r3, [r5, #12]
 457:Core/Src/main.c ****   htim2.Init.AutoReloadPreload = TIM_AUTORELOAD_PRELOAD_DISABLE;
 483              		.loc 1 457 3 is_stmt 1 view .LVU151
 457:Core/Src/main.c ****   htim2.Init.AutoReloadPreload = TIM_AUTORELOAD_PRELOAD_DISABLE;
 484              		.loc 1 457 28 is_stmt 0 view .LVU152
 485 002e 2C61     		str	r4, [r5, #16]
 458:Core/Src/main.c ****   if (HAL_TIM_Base_Init(&htim2) != HAL_OK)
 486              		.loc 1 458 3 is_stmt 1 view .LVU153
 458:Core/Src/main.c ****   if (HAL_TIM_Base_Init(&htim2) != HAL_OK)
 487              		.loc 1 458 32 is_stmt 0 view .LVU154
 488 0030 AC61     		str	r4, [r5, #24]
 459:Core/Src/main.c ****   {
 489              		.loc 1 459 3 is_stmt 1 view .LVU155
 459:Core/Src/main.c ****   {
 490              		.loc 1 459 7 is_stmt 0 view .LVU156
 491 0032 2846     		mov	r0, r5
 492 0034 FFF7FEFF 		bl	HAL_TIM_Base_Init
 493              	.LVL14:
 463:Core/Src/main.c ****   if (HAL_TIM_ConfigClockSource(&htim2, &sClockSourceConfig) != HAL_OK)
 494              		.loc 1 463 3 is_stmt 1 view .LVU157
 463:Core/Src/main.c ****   if (HAL_TIM_ConfigClockSource(&htim2, &sClockSourceConfig) != HAL_OK)
 495              		.loc 1 463 34 is_stmt 0 view .LVU158
 496 0038 4FF48053 		mov	r3, #4096
 497 003c 0893     		str	r3, [sp, #32]
 464:Core/Src/main.c ****   {
 498              		.loc 1 464 3 is_stmt 1 view .LVU159
 464:Core/Src/main.c ****   {
ARM GAS  C:\Users\arada\AppData\Local\Temp\ccA5l7kM.s 			page 22


 499              		.loc 1 464 7 is_stmt 0 view .LVU160
 500 003e 08A9     		add	r1, sp, #32
 501 0040 2846     		mov	r0, r5
 502 0042 FFF7FEFF 		bl	HAL_TIM_ConfigClockSource
 503              	.LVL15:
 468:Core/Src/main.c ****   sSlaveConfig.InputTrigger = TIM_TS_ITR0;
 504              		.loc 1 468 3 is_stmt 1 view .LVU161
 468:Core/Src/main.c ****   sSlaveConfig.InputTrigger = TIM_TS_ITR0;
 505              		.loc 1 468 26 is_stmt 0 view .LVU162
 506 0046 0394     		str	r4, [sp, #12]
 469:Core/Src/main.c ****   if (HAL_TIM_SlaveConfigSynchro(&htim2, &sSlaveConfig) != HAL_OK)
 507              		.loc 1 469 3 is_stmt 1 view .LVU163
 469:Core/Src/main.c ****   if (HAL_TIM_SlaveConfigSynchro(&htim2, &sSlaveConfig) != HAL_OK)
 508              		.loc 1 469 29 is_stmt 0 view .LVU164
 509 0048 0494     		str	r4, [sp, #16]
 470:Core/Src/main.c ****   {
 510              		.loc 1 470 3 is_stmt 1 view .LVU165
 470:Core/Src/main.c ****   {
 511              		.loc 1 470 7 is_stmt 0 view .LVU166
 512 004a 03A9     		add	r1, sp, #12
 513 004c 2846     		mov	r0, r5
 514 004e FFF7FEFF 		bl	HAL_TIM_SlaveConfigSynchro
 515              	.LVL16:
 474:Core/Src/main.c ****   sMasterConfig.MasterSlaveMode = TIM_MASTERSLAVEMODE_DISABLE;
 516              		.loc 1 474 3 is_stmt 1 view .LVU167
 474:Core/Src/main.c ****   sMasterConfig.MasterSlaveMode = TIM_MASTERSLAVEMODE_DISABLE;
 517              		.loc 1 474 37 is_stmt 0 view .LVU168
 518 0052 0194     		str	r4, [sp, #4]
 475:Core/Src/main.c ****   if (HAL_TIMEx_MasterConfigSynchronization(&htim2, &sMasterConfig) != HAL_OK)
 519              		.loc 1 475 3 is_stmt 1 view .LVU169
 475:Core/Src/main.c ****   if (HAL_TIMEx_MasterConfigSynchronization(&htim2, &sMasterConfig) != HAL_OK)
 520              		.loc 1 475 33 is_stmt 0 view .LVU170
 521 0054 0294     		str	r4, [sp, #8]
 476:Core/Src/main.c ****   {
 522              		.loc 1 476 3 is_stmt 1 view .LVU171
 476:Core/Src/main.c ****   {
 523              		.loc 1 476 7 is_stmt 0 view .LVU172
 524 0056 01A9     		add	r1, sp, #4
 525 0058 2846     		mov	r0, r5
 526 005a FFF7FEFF 		bl	HAL_TIMEx_MasterConfigSynchronization
 527              	.LVL17:
 484:Core/Src/main.c **** 
 528              		.loc 1 484 1 view .LVU173
 529 005e 0DB0     		add	sp, sp, #52
 530              	.LCFI11:
 531              		.cfi_def_cfa_offset 12
 532              		@ sp needed
 533 0060 30BD     		pop	{r4, r5, pc}
 534              	.L16:
 535 0062 00BF     		.align	2
 536              	.L15:
 537 0064 00000000 		.word	htim2
 538              		.cfi_endproc
 539              	.LFE78:
 541              		.section	.text.MX_USART1_UART_Init,"ax",%progbits
 542              		.align	1
 543              		.syntax unified
ARM GAS  C:\Users\arada\AppData\Local\Temp\ccA5l7kM.s 			page 23


 544              		.thumb
 545              		.thumb_func
 546              		.fpu softvfp
 548              	MX_USART1_UART_Init:
 549              	.LFB79:
 492:Core/Src/main.c **** 
 550              		.loc 1 492 1 is_stmt 1 view -0
 551              		.cfi_startproc
 552              		@ args = 0, pretend = 0, frame = 0
 553              		@ frame_needed = 0, uses_anonymous_args = 0
 554 0000 08B5     		push	{r3, lr}
 555              	.LCFI12:
 556              		.cfi_def_cfa_offset 8
 557              		.cfi_offset 3, -8
 558              		.cfi_offset 14, -4
 501:Core/Src/main.c ****   huart1.Init.BaudRate = 115200;
 559              		.loc 1 501 3 view .LVU175
 501:Core/Src/main.c ****   huart1.Init.BaudRate = 115200;
 560              		.loc 1 501 19 is_stmt 0 view .LVU176
 561 0002 0848     		ldr	r0, .L19
 562 0004 084B     		ldr	r3, .L19+4
 563 0006 0360     		str	r3, [r0]
 502:Core/Src/main.c ****   huart1.Init.WordLength = UART_WORDLENGTH_8B;
 564              		.loc 1 502 3 is_stmt 1 view .LVU177
 502:Core/Src/main.c ****   huart1.Init.WordLength = UART_WORDLENGTH_8B;
 565              		.loc 1 502 24 is_stmt 0 view .LVU178
 566 0008 4FF4E133 		mov	r3, #115200
 567 000c 4360     		str	r3, [r0, #4]
 503:Core/Src/main.c ****   huart1.Init.StopBits = UART_STOPBITS_1;
 568              		.loc 1 503 3 is_stmt 1 view .LVU179
 503:Core/Src/main.c ****   huart1.Init.StopBits = UART_STOPBITS_1;
 569              		.loc 1 503 26 is_stmt 0 view .LVU180
 570 000e 0023     		movs	r3, #0
 571 0010 8360     		str	r3, [r0, #8]
 504:Core/Src/main.c ****   huart1.Init.Parity = UART_PARITY_NONE;
 572              		.loc 1 504 3 is_stmt 1 view .LVU181
 504:Core/Src/main.c ****   huart1.Init.Parity = UART_PARITY_NONE;
 573              		.loc 1 504 24 is_stmt 0 view .LVU182
 574 0012 C360     		str	r3, [r0, #12]
 505:Core/Src/main.c ****   huart1.Init.Mode = UART_MODE_TX_RX;
 575              		.loc 1 505 3 is_stmt 1 view .LVU183
 505:Core/Src/main.c ****   huart1.Init.Mode = UART_MODE_TX_RX;
 576              		.loc 1 505 22 is_stmt 0 view .LVU184
 577 0014 0361     		str	r3, [r0, #16]
 506:Core/Src/main.c ****   huart1.Init.HwFlowCtl = UART_HWCONTROL_NONE;
 578              		.loc 1 506 3 is_stmt 1 view .LVU185
 506:Core/Src/main.c ****   huart1.Init.HwFlowCtl = UART_HWCONTROL_NONE;
 579              		.loc 1 506 20 is_stmt 0 view .LVU186
 580 0016 0C22     		movs	r2, #12
 581 0018 4261     		str	r2, [r0, #20]
 507:Core/Src/main.c ****   huart1.Init.OverSampling = UART_OVERSAMPLING_16;
 582              		.loc 1 507 3 is_stmt 1 view .LVU187
 507:Core/Src/main.c ****   huart1.Init.OverSampling = UART_OVERSAMPLING_16;
 583              		.loc 1 507 25 is_stmt 0 view .LVU188
 584 001a 8361     		str	r3, [r0, #24]
 508:Core/Src/main.c ****   if (HAL_UART_Init(&huart1) != HAL_OK)
 585              		.loc 1 508 3 is_stmt 1 view .LVU189
ARM GAS  C:\Users\arada\AppData\Local\Temp\ccA5l7kM.s 			page 24


 508:Core/Src/main.c ****   if (HAL_UART_Init(&huart1) != HAL_OK)
 586              		.loc 1 508 28 is_stmt 0 view .LVU190
 587 001c C361     		str	r3, [r0, #28]
 509:Core/Src/main.c ****   {
 588              		.loc 1 509 3 is_stmt 1 view .LVU191
 509:Core/Src/main.c ****   {
 589              		.loc 1 509 7 is_stmt 0 view .LVU192
 590 001e FFF7FEFF 		bl	HAL_UART_Init
 591              	.LVL18:
 517:Core/Src/main.c **** 
 592              		.loc 1 517 1 view .LVU193
 593 0022 08BD     		pop	{r3, pc}
 594              	.L20:
 595              		.align	2
 596              	.L19:
 597 0024 00000000 		.word	huart1
 598 0028 00380140 		.word	1073821696
 599              		.cfi_endproc
 600              	.LFE79:
 602              		.section	.text.MX_USART2_UART_Init,"ax",%progbits
 603              		.align	1
 604              		.syntax unified
 605              		.thumb
 606              		.thumb_func
 607              		.fpu softvfp
 609              	MX_USART2_UART_Init:
 610              	.LFB80:
 525:Core/Src/main.c **** 
 611              		.loc 1 525 1 is_stmt 1 view -0
 612              		.cfi_startproc
 613              		@ args = 0, pretend = 0, frame = 0
 614              		@ frame_needed = 0, uses_anonymous_args = 0
 615 0000 08B5     		push	{r3, lr}
 616              	.LCFI13:
 617              		.cfi_def_cfa_offset 8
 618              		.cfi_offset 3, -8
 619              		.cfi_offset 14, -4
 534:Core/Src/main.c ****   huart2.Init.BaudRate = 115200;
 620              		.loc 1 534 3 view .LVU195
 534:Core/Src/main.c ****   huart2.Init.BaudRate = 115200;
 621              		.loc 1 534 19 is_stmt 0 view .LVU196
 622 0002 0848     		ldr	r0, .L23
 623 0004 084B     		ldr	r3, .L23+4
 624 0006 0360     		str	r3, [r0]
 535:Core/Src/main.c ****   huart2.Init.WordLength = UART_WORDLENGTH_8B;
 625              		.loc 1 535 3 is_stmt 1 view .LVU197
 535:Core/Src/main.c ****   huart2.Init.WordLength = UART_WORDLENGTH_8B;
 626              		.loc 1 535 24 is_stmt 0 view .LVU198
 627 0008 4FF4E133 		mov	r3, #115200
 628 000c 4360     		str	r3, [r0, #4]
 536:Core/Src/main.c ****   huart2.Init.StopBits = UART_STOPBITS_1;
 629              		.loc 1 536 3 is_stmt 1 view .LVU199
 536:Core/Src/main.c ****   huart2.Init.StopBits = UART_STOPBITS_1;
 630              		.loc 1 536 26 is_stmt 0 view .LVU200
 631 000e 0023     		movs	r3, #0
 632 0010 8360     		str	r3, [r0, #8]
 537:Core/Src/main.c ****   huart2.Init.Parity = UART_PARITY_NONE;
ARM GAS  C:\Users\arada\AppData\Local\Temp\ccA5l7kM.s 			page 25


 633              		.loc 1 537 3 is_stmt 1 view .LVU201
 537:Core/Src/main.c ****   huart2.Init.Parity = UART_PARITY_NONE;
 634              		.loc 1 537 24 is_stmt 0 view .LVU202
 635 0012 C360     		str	r3, [r0, #12]
 538:Core/Src/main.c ****   huart2.Init.Mode = UART_MODE_TX_RX;
 636              		.loc 1 538 3 is_stmt 1 view .LVU203
 538:Core/Src/main.c ****   huart2.Init.Mode = UART_MODE_TX_RX;
 637              		.loc 1 538 22 is_stmt 0 view .LVU204
 638 0014 0361     		str	r3, [r0, #16]
 539:Core/Src/main.c ****   huart2.Init.HwFlowCtl = UART_HWCONTROL_NONE;
 639              		.loc 1 539 3 is_stmt 1 view .LVU205
 539:Core/Src/main.c ****   huart2.Init.HwFlowCtl = UART_HWCONTROL_NONE;
 640              		.loc 1 539 20 is_stmt 0 view .LVU206
 641 0016 0C22     		movs	r2, #12
 642 0018 4261     		str	r2, [r0, #20]
 540:Core/Src/main.c ****   huart2.Init.OverSampling = UART_OVERSAMPLING_16;
 643              		.loc 1 540 3 is_stmt 1 view .LVU207
 540:Core/Src/main.c ****   huart2.Init.OverSampling = UART_OVERSAMPLING_16;
 644              		.loc 1 540 25 is_stmt 0 view .LVU208
 645 001a 8361     		str	r3, [r0, #24]
 541:Core/Src/main.c ****   if (HAL_UART_Init(&huart2) != HAL_OK)
 646              		.loc 1 541 3 is_stmt 1 view .LVU209
 541:Core/Src/main.c ****   if (HAL_UART_Init(&huart2) != HAL_OK)
 647              		.loc 1 541 28 is_stmt 0 view .LVU210
 648 001c C361     		str	r3, [r0, #28]
 542:Core/Src/main.c ****   {
 649              		.loc 1 542 3 is_stmt 1 view .LVU211
 542:Core/Src/main.c ****   {
 650              		.loc 1 542 7 is_stmt 0 view .LVU212
 651 001e FFF7FEFF 		bl	HAL_UART_Init
 652              	.LVL19:
 550:Core/Src/main.c **** 
 653              		.loc 1 550 1 view .LVU213
 654 0022 08BD     		pop	{r3, pc}
 655              	.L24:
 656              		.align	2
 657              	.L23:
 658 0024 00000000 		.word	huart2
 659 0028 00440040 		.word	1073759232
 660              		.cfi_endproc
 661              	.LFE80:
 663              		.section	.text.MX_SPI2_Init,"ax",%progbits
 664              		.align	1
 665              		.syntax unified
 666              		.thumb
 667              		.thumb_func
 668              		.fpu softvfp
 670              	MX_SPI2_Init:
 671              	.LFB77:
 402:Core/Src/main.c **** 
 672              		.loc 1 402 1 is_stmt 1 view -0
 673              		.cfi_startproc
 674              		@ args = 0, pretend = 0, frame = 0
 675              		@ frame_needed = 0, uses_anonymous_args = 0
 676 0000 08B5     		push	{r3, lr}
 677              	.LCFI14:
 678              		.cfi_def_cfa_offset 8
ARM GAS  C:\Users\arada\AppData\Local\Temp\ccA5l7kM.s 			page 26


 679              		.cfi_offset 3, -8
 680              		.cfi_offset 14, -4
 412:Core/Src/main.c ****   hspi2.Init.Mode = SPI_MODE_MASTER;
 681              		.loc 1 412 3 view .LVU215
 412:Core/Src/main.c ****   hspi2.Init.Mode = SPI_MODE_MASTER;
 682              		.loc 1 412 18 is_stmt 0 view .LVU216
 683 0002 0B48     		ldr	r0, .L27
 684 0004 0B4B     		ldr	r3, .L27+4
 685 0006 0360     		str	r3, [r0]
 413:Core/Src/main.c ****   hspi2.Init.Direction = SPI_DIRECTION_2LINES;
 686              		.loc 1 413 3 is_stmt 1 view .LVU217
 413:Core/Src/main.c ****   hspi2.Init.Direction = SPI_DIRECTION_2LINES;
 687              		.loc 1 413 19 is_stmt 0 view .LVU218
 688 0008 4FF48273 		mov	r3, #260
 689 000c 4360     		str	r3, [r0, #4]
 414:Core/Src/main.c ****   hspi2.Init.DataSize = SPI_DATASIZE_8BIT;
 690              		.loc 1 414 3 is_stmt 1 view .LVU219
 414:Core/Src/main.c ****   hspi2.Init.DataSize = SPI_DATASIZE_8BIT;
 691              		.loc 1 414 24 is_stmt 0 view .LVU220
 692 000e 0023     		movs	r3, #0
 693 0010 8360     		str	r3, [r0, #8]
 415:Core/Src/main.c ****   hspi2.Init.CLKPolarity = SPI_POLARITY_LOW;
 694              		.loc 1 415 3 is_stmt 1 view .LVU221
 415:Core/Src/main.c ****   hspi2.Init.CLKPolarity = SPI_POLARITY_LOW;
 695              		.loc 1 415 23 is_stmt 0 view .LVU222
 696 0012 C360     		str	r3, [r0, #12]
 416:Core/Src/main.c ****   hspi2.Init.CLKPhase = SPI_PHASE_1EDGE;
 697              		.loc 1 416 3 is_stmt 1 view .LVU223
 416:Core/Src/main.c ****   hspi2.Init.CLKPhase = SPI_PHASE_1EDGE;
 698              		.loc 1 416 26 is_stmt 0 view .LVU224
 699 0014 0361     		str	r3, [r0, #16]
 417:Core/Src/main.c ****   hspi2.Init.NSS = SPI_NSS_HARD_OUTPUT;
 700              		.loc 1 417 3 is_stmt 1 view .LVU225
 417:Core/Src/main.c ****   hspi2.Init.NSS = SPI_NSS_HARD_OUTPUT;
 701              		.loc 1 417 23 is_stmt 0 view .LVU226
 702 0016 4361     		str	r3, [r0, #20]
 418:Core/Src/main.c ****   hspi2.Init.BaudRatePrescaler = SPI_BAUDRATEPRESCALER_2;
 703              		.loc 1 418 3 is_stmt 1 view .LVU227
 418:Core/Src/main.c ****   hspi2.Init.BaudRatePrescaler = SPI_BAUDRATEPRESCALER_2;
 704              		.loc 1 418 18 is_stmt 0 view .LVU228
 705 0018 4FF48022 		mov	r2, #262144
 706 001c 8261     		str	r2, [r0, #24]
 419:Core/Src/main.c ****   hspi2.Init.FirstBit = SPI_FIRSTBIT_MSB;
 707              		.loc 1 419 3 is_stmt 1 view .LVU229
 419:Core/Src/main.c ****   hspi2.Init.FirstBit = SPI_FIRSTBIT_MSB;
 708              		.loc 1 419 32 is_stmt 0 view .LVU230
 709 001e C361     		str	r3, [r0, #28]
 420:Core/Src/main.c ****   hspi2.Init.TIMode = SPI_TIMODE_DISABLE;
 710              		.loc 1 420 3 is_stmt 1 view .LVU231
 420:Core/Src/main.c ****   hspi2.Init.TIMode = SPI_TIMODE_DISABLE;
 711              		.loc 1 420 23 is_stmt 0 view .LVU232
 712 0020 0362     		str	r3, [r0, #32]
 421:Core/Src/main.c ****   hspi2.Init.CRCCalculation = SPI_CRCCALCULATION_DISABLE;
 713              		.loc 1 421 3 is_stmt 1 view .LVU233
 421:Core/Src/main.c ****   hspi2.Init.CRCCalculation = SPI_CRCCALCULATION_DISABLE;
 714              		.loc 1 421 21 is_stmt 0 view .LVU234
 715 0022 4362     		str	r3, [r0, #36]
ARM GAS  C:\Users\arada\AppData\Local\Temp\ccA5l7kM.s 			page 27


 422:Core/Src/main.c ****   hspi2.Init.CRCPolynomial = 10;
 716              		.loc 1 422 3 is_stmt 1 view .LVU235
 422:Core/Src/main.c ****   hspi2.Init.CRCPolynomial = 10;
 717              		.loc 1 422 29 is_stmt 0 view .LVU236
 718 0024 8362     		str	r3, [r0, #40]
 423:Core/Src/main.c ****   if (HAL_SPI_Init(&hspi2) != HAL_OK)
 719              		.loc 1 423 3 is_stmt 1 view .LVU237
 423:Core/Src/main.c ****   if (HAL_SPI_Init(&hspi2) != HAL_OK)
 720              		.loc 1 423 28 is_stmt 0 view .LVU238
 721 0026 0A23     		movs	r3, #10
 722 0028 C362     		str	r3, [r0, #44]
 424:Core/Src/main.c ****   {
 723              		.loc 1 424 3 is_stmt 1 view .LVU239
 424:Core/Src/main.c ****   {
 724              		.loc 1 424 7 is_stmt 0 view .LVU240
 725 002a FFF7FEFF 		bl	HAL_SPI_Init
 726              	.LVL20:
 432:Core/Src/main.c **** 
 727              		.loc 1 432 1 view .LVU241
 728 002e 08BD     		pop	{r3, pc}
 729              	.L28:
 730              		.align	2
 731              	.L27:
 732 0030 00000000 		.word	hspi2
 733 0034 00380040 		.word	1073756160
 734              		.cfi_endproc
 735              	.LFE77:
 737              		.section	.text.spi_w,"ax",%progbits
 738              		.align	1
 739              		.global	spi_w
 740              		.syntax unified
 741              		.thumb
 742              		.thumb_func
 743              		.fpu softvfp
 745              	spi_w:
 746              	.LVL21:
 747              	.LFB68:
  67:Core/Src/main.c ****   for (int i = 0x80; i != 0x00; i >>= 1) 
 748              		.loc 1 67 1 is_stmt 1 view -0
 749              		.cfi_startproc
 750              		@ args = 0, pretend = 0, frame = 0
 751              		@ frame_needed = 0, uses_anonymous_args = 0
  67:Core/Src/main.c ****   for (int i = 0x80; i != 0x00; i >>= 1) 
 752              		.loc 1 67 1 is_stmt 0 view .LVU243
 753 0000 38B5     		push	{r3, r4, r5, lr}
 754              	.LCFI15:
 755              		.cfi_def_cfa_offset 16
 756              		.cfi_offset 3, -16
 757              		.cfi_offset 4, -12
 758              		.cfi_offset 5, -8
 759              		.cfi_offset 14, -4
 760 0002 0546     		mov	r5, r0
  68:Core/Src/main.c ****   {
 761              		.loc 1 68 3 is_stmt 1 view .LVU244
 762              	.LBB5:
  68:Core/Src/main.c ****   {
 763              		.loc 1 68 8 view .LVU245
ARM GAS  C:\Users\arada\AppData\Local\Temp\ccA5l7kM.s 			page 28


 764              	.LVL22:
  68:Core/Src/main.c ****   {
 765              		.loc 1 68 12 is_stmt 0 view .LVU246
 766 0004 8024     		movs	r4, #128
  68:Core/Src/main.c ****   {
 767              		.loc 1 68 3 view .LVU247
 768 0006 0AE0     		b	.L30
 769              	.LVL23:
 770              	.L31:
  74:Core/Src/main.c ****     HAL_GPIO_WritePin(SCK_GPIO_Port, SCK_Pin, GPIO_PIN_SET);
 771              		.loc 1 74 7 is_stmt 1 view .LVU248
 772 0008 0022     		movs	r2, #0
 773 000a 0821     		movs	r1, #8
 774 000c 0B48     		ldr	r0, .L36
 775 000e FFF7FEFF 		bl	HAL_GPIO_WritePin
 776              	.LVL24:
 777              	.L32:
  75:Core/Src/main.c ****   }
 778              		.loc 1 75 5 discriminator 2 view .LVU249
 779 0012 0122     		movs	r2, #1
 780 0014 1021     		movs	r1, #16
 781 0016 0948     		ldr	r0, .L36
 782 0018 FFF7FEFF 		bl	HAL_GPIO_WritePin
 783              	.LVL25:
  68:Core/Src/main.c ****   {
 784              		.loc 1 68 33 discriminator 2 view .LVU250
  68:Core/Src/main.c ****   {
 785              		.loc 1 68 35 is_stmt 0 discriminator 2 view .LVU251
 786 001c 6410     		asrs	r4, r4, #1
 787              	.LVL26:
 788              	.L30:
  68:Core/Src/main.c ****   {
 789              		.loc 1 68 22 is_stmt 1 discriminator 1 view .LVU252
  68:Core/Src/main.c ****   {
 790              		.loc 1 68 3 is_stmt 0 discriminator 1 view .LVU253
 791 001e 64B1     		cbz	r4, .L35
  70:Core/Src/main.c ****     if (byte & i)
 792              		.loc 1 70 5 is_stmt 1 view .LVU254
 793 0020 0022     		movs	r2, #0
 794 0022 1021     		movs	r1, #16
 795 0024 0548     		ldr	r0, .L36
 796 0026 FFF7FEFF 		bl	HAL_GPIO_WritePin
 797              	.LVL27:
  71:Core/Src/main.c ****       HAL_GPIO_WritePin(SDI_GPIO_Port, SDI_Pin, GPIO_PIN_SET);
 798              		.loc 1 71 5 view .LVU255
  71:Core/Src/main.c ****       HAL_GPIO_WritePin(SDI_GPIO_Port, SDI_Pin, GPIO_PIN_SET);
 799              		.loc 1 71 8 is_stmt 0 view .LVU256
 800 002a 2542     		tst	r5, r4
 801 002c ECD0     		beq	.L31
  72:Core/Src/main.c ****     else 
 802              		.loc 1 72 7 is_stmt 1 view .LVU257
 803 002e 0122     		movs	r2, #1
 804 0030 0821     		movs	r1, #8
 805 0032 0248     		ldr	r0, .L36
 806 0034 FFF7FEFF 		bl	HAL_GPIO_WritePin
 807              	.LVL28:
 808 0038 EBE7     		b	.L32
ARM GAS  C:\Users\arada\AppData\Local\Temp\ccA5l7kM.s 			page 29


 809              	.L35:
 810              	.LBE5:
  77:Core/Src/main.c **** 
 811              		.loc 1 77 1 is_stmt 0 view .LVU258
 812 003a 38BD     		pop	{r3, r4, r5, pc}
 813              	.LVL29:
 814              	.L37:
  77:Core/Src/main.c **** 
 815              		.loc 1 77 1 view .LVU259
 816              		.align	2
 817              	.L36:
 818 003c 000C0140 		.word	1073810432
 819              		.cfi_endproc
 820              	.LFE68:
 822              		.section	.text.dac_w,"ax",%progbits
 823              		.align	1
 824              		.global	dac_w
 825              		.syntax unified
 826              		.thumb
 827              		.thumb_func
 828              		.fpu softvfp
 830              	dac_w:
 831              	.LVL30:
 832              	.LFB69:
  80:Core/Src/main.c ****   uint8_t buf[3];
 833              		.loc 1 80 1 is_stmt 1 view -0
 834              		.cfi_startproc
 835              		@ args = 0, pretend = 0, frame = 8
 836              		@ frame_needed = 0, uses_anonymous_args = 0
  80:Core/Src/main.c ****   uint8_t buf[3];
 837              		.loc 1 80 1 is_stmt 0 view .LVU261
 838 0000 10B5     		push	{r4, lr}
 839              	.LCFI16:
 840              		.cfi_def_cfa_offset 8
 841              		.cfi_offset 4, -8
 842              		.cfi_offset 14, -4
 843 0002 82B0     		sub	sp, sp, #8
 844              	.LCFI17:
 845              		.cfi_def_cfa_offset 16
  81:Core/Src/main.c ****   buf[0] = (data >> 12) | (cmd << 4);
 846              		.loc 1 81 3 is_stmt 1 view .LVU262
  82:Core/Src/main.c ****   buf[1] = (data >> 4);
 847              		.loc 1 82 3 view .LVU263
  82:Core/Src/main.c ****   buf[1] = (data >> 4);
 848              		.loc 1 82 25 is_stmt 0 view .LVU264
 849 0004 0B0B     		lsrs	r3, r1, #12
 850 0006 43EA0013 		orr	r3, r3, r0, lsl #4
  82:Core/Src/main.c ****   buf[1] = (data >> 4);
 851              		.loc 1 82 10 view .LVU265
 852 000a 8DF80430 		strb	r3, [sp, #4]
  83:Core/Src/main.c ****   buf[2] = ((data << 4) & 0xF0);
 853              		.loc 1 83 3 is_stmt 1 view .LVU266
  83:Core/Src/main.c ****   buf[2] = ((data << 4) & 0xF0);
 854              		.loc 1 83 10 is_stmt 0 view .LVU267
 855 000e 0B09     		lsrs	r3, r1, #4
 856 0010 8DF80530 		strb	r3, [sp, #5]
  84:Core/Src/main.c ****   for(int i = 0 ; i < 3 ; i++)
ARM GAS  C:\Users\arada\AppData\Local\Temp\ccA5l7kM.s 			page 30


 857              		.loc 1 84 3 is_stmt 1 view .LVU268
  84:Core/Src/main.c ****   for(int i = 0 ; i < 3 ; i++)
 858              		.loc 1 84 19 is_stmt 0 view .LVU269
 859 0014 0901     		lsls	r1, r1, #4
 860              	.LVL31:
  84:Core/Src/main.c ****   for(int i = 0 ; i < 3 ; i++)
 861              		.loc 1 84 10 view .LVU270
 862 0016 8DF80610 		strb	r1, [sp, #6]
  85:Core/Src/main.c ****     spi_w(buf[i]);
 863              		.loc 1 85 3 is_stmt 1 view .LVU271
 864              	.LBB6:
  85:Core/Src/main.c ****     spi_w(buf[i]);
 865              		.loc 1 85 7 view .LVU272
 866              	.LVL32:
  85:Core/Src/main.c ****     spi_w(buf[i]);
 867              		.loc 1 85 11 is_stmt 0 view .LVU273
 868 001a 0024     		movs	r4, #0
  85:Core/Src/main.c ****     spi_w(buf[i]);
 869              		.loc 1 85 3 view .LVU274
 870 001c 06E0     		b	.L39
 871              	.LVL33:
 872              	.L40:
  86:Core/Src/main.c **** }
 873              		.loc 1 86 5 is_stmt 1 discriminator 3 view .LVU275
 874 001e 02AB     		add	r3, sp, #8
 875 0020 2344     		add	r3, r3, r4
 876 0022 13F8040C 		ldrb	r0, [r3, #-4]	@ zero_extendqisi2
 877 0026 FFF7FEFF 		bl	spi_w
 878              	.LVL34:
  85:Core/Src/main.c ****     spi_w(buf[i]);
 879              		.loc 1 85 27 discriminator 3 view .LVU276
  85:Core/Src/main.c ****     spi_w(buf[i]);
 880              		.loc 1 85 28 is_stmt 0 discriminator 3 view .LVU277
 881 002a 0134     		adds	r4, r4, #1
 882              	.LVL35:
 883              	.L39:
  85:Core/Src/main.c ****     spi_w(buf[i]);
 884              		.loc 1 85 19 is_stmt 1 discriminator 1 view .LVU278
  85:Core/Src/main.c ****     spi_w(buf[i]);
 885              		.loc 1 85 3 is_stmt 0 discriminator 1 view .LVU279
 886 002c 022C     		cmp	r4, #2
 887 002e F6DD     		ble	.L40
 888              	.LBE6:
  87:Core/Src/main.c **** 
 889              		.loc 1 87 1 view .LVU280
 890 0030 02B0     		add	sp, sp, #8
 891              	.LCFI18:
 892              		.cfi_def_cfa_offset 8
 893              		@ sp needed
 894 0032 10BD     		pop	{r4, pc}
  87:Core/Src/main.c **** 
 895              		.loc 1 87 1 view .LVU281
 896              		.cfi_endproc
 897              	.LFE69:
 899              		.section	.text.dac_wu,"ax",%progbits
 900              		.align	1
 901              		.global	dac_wu
ARM GAS  C:\Users\arada\AppData\Local\Temp\ccA5l7kM.s 			page 31


 902              		.syntax unified
 903              		.thumb
 904              		.thumb_func
 905              		.fpu softvfp
 907              	dac_wu:
 908              	.LVL36:
 909              	.LFB70:
  90:Core/Src/main.c ****   dac_w(0b0011 , data);
 910              		.loc 1 90 1 is_stmt 1 view -0
 911              		.cfi_startproc
 912              		@ args = 0, pretend = 0, frame = 0
 913              		@ frame_needed = 0, uses_anonymous_args = 0
  90:Core/Src/main.c ****   dac_w(0b0011 , data);
 914              		.loc 1 90 1 is_stmt 0 view .LVU283
 915 0000 08B5     		push	{r3, lr}
 916              	.LCFI19:
 917              		.cfi_def_cfa_offset 8
 918              		.cfi_offset 3, -8
 919              		.cfi_offset 14, -4
 920 0002 0146     		mov	r1, r0
  91:Core/Src/main.c **** }
 921              		.loc 1 91 3 is_stmt 1 view .LVU284
 922 0004 0320     		movs	r0, #3
 923              	.LVL37:
  91:Core/Src/main.c **** }
 924              		.loc 1 91 3 is_stmt 0 view .LVU285
 925 0006 FFF7FEFF 		bl	dac_w
 926              	.LVL38:
  92:Core/Src/main.c **** 
 927              		.loc 1 92 1 view .LVU286
 928 000a 08BD     		pop	{r3, pc}
 929              		.cfi_endproc
 930              	.LFE70:
 932              		.section	.text.dac_ctrl,"ax",%progbits
 933              		.align	1
 934              		.global	dac_ctrl
 935              		.syntax unified
 936              		.thumb
 937              		.thumb_func
 938              		.fpu softvfp
 940              	dac_ctrl:
 941              	.LVL39:
 942              	.LFB71:
  95:Core/Src/main.c ****   dac_w(0b0100 , (PD << 4 | REF << 2 | GAIN << 1 | DCEN) << 10);
 943              		.loc 1 95 1 is_stmt 1 view -0
 944              		.cfi_startproc
 945              		@ args = 0, pretend = 0, frame = 0
 946              		@ frame_needed = 0, uses_anonymous_args = 0
  95:Core/Src/main.c ****   dac_w(0b0100 , (PD << 4 | REF << 2 | GAIN << 1 | DCEN) << 10);
 947              		.loc 1 95 1 is_stmt 0 view .LVU288
 948 0000 08B5     		push	{r3, lr}
 949              	.LCFI20:
 950              		.cfi_def_cfa_offset 8
 951              		.cfi_offset 3, -8
 952              		.cfi_offset 14, -4
  96:Core/Src/main.c **** }
 953              		.loc 1 96 3 is_stmt 1 view .LVU289
ARM GAS  C:\Users\arada\AppData\Local\Temp\ccA5l7kM.s 			page 32


  96:Core/Src/main.c **** }
 954              		.loc 1 96 33 is_stmt 0 view .LVU290
 955 0002 8900     		lsls	r1, r1, #2
 956              	.LVL40:
  96:Core/Src/main.c **** }
 957              		.loc 1 96 27 view .LVU291
 958 0004 41EA0011 		orr	r1, r1, r0, lsl #4
  96:Core/Src/main.c **** }
 959              		.loc 1 96 38 view .LVU292
 960 0008 41EA4201 		orr	r1, r1, r2, lsl #1
  96:Core/Src/main.c **** }
 961              		.loc 1 96 50 view .LVU293
 962 000c 1943     		orrs	r1, r1, r3
  96:Core/Src/main.c **** }
 963              		.loc 1 96 3 view .LVU294
 964 000e 8902     		lsls	r1, r1, #10
 965 0010 01F47C41 		and	r1, r1, #64512
 966 0014 0420     		movs	r0, #4
 967              	.LVL41:
  96:Core/Src/main.c **** }
 968              		.loc 1 96 3 view .LVU295
 969 0016 FFF7FEFF 		bl	dac_w
 970              	.LVL42:
  97:Core/Src/main.c **** 
 971              		.loc 1 97 1 view .LVU296
 972 001a 08BD     		pop	{r3, pc}
 973              		.cfi_endproc
 974              	.LFE71:
 976              		.section	.text.dac_res,"ax",%progbits
 977              		.align	1
 978              		.global	dac_res
 979              		.syntax unified
 980              		.thumb
 981              		.thumb_func
 982              		.fpu softvfp
 984              	dac_res:
 985              	.LFB72:
 100:Core/Src/main.c ****   dac_w(0b0100 , 1 << 15);
 986              		.loc 1 100 1 is_stmt 1 view -0
 987              		.cfi_startproc
 988              		@ args = 0, pretend = 0, frame = 0
 989              		@ frame_needed = 0, uses_anonymous_args = 0
 990 0000 08B5     		push	{r3, lr}
 991              	.LCFI21:
 992              		.cfi_def_cfa_offset 8
 993              		.cfi_offset 3, -8
 994              		.cfi_offset 14, -4
 101:Core/Src/main.c **** }
 995              		.loc 1 101 3 view .LVU298
 996 0002 4FF40041 		mov	r1, #32768
 997 0006 0420     		movs	r0, #4
 998 0008 FFF7FEFF 		bl	dac_w
 999              	.LVL43:
 102:Core/Src/main.c **** /* USER CODE END PV */
 1000              		.loc 1 102 1 is_stmt 0 view .LVU299
 1001 000c 08BD     		pop	{r3, pc}
 1002              		.cfi_endproc
ARM GAS  C:\Users\arada\AppData\Local\Temp\ccA5l7kM.s 			page 33


 1003              	.LFE72:
 1005              		.section	.text.SystemClock_Config,"ax",%progbits
 1006              		.align	1
 1007              		.global	SystemClock_Config
 1008              		.syntax unified
 1009              		.thumb
 1010              		.thumb_func
 1011              		.fpu softvfp
 1013              	SystemClock_Config:
 1014              	.LFB74:
 235:Core/Src/main.c ****   RCC_OscInitTypeDef RCC_OscInitStruct = {0};
 1015              		.loc 1 235 1 is_stmt 1 view -0
 1016              		.cfi_startproc
 1017              		@ args = 0, pretend = 0, frame = 80
 1018              		@ frame_needed = 0, uses_anonymous_args = 0
 1019 0000 30B5     		push	{r4, r5, lr}
 1020              	.LCFI22:
 1021              		.cfi_def_cfa_offset 12
 1022              		.cfi_offset 4, -12
 1023              		.cfi_offset 5, -8
 1024              		.cfi_offset 14, -4
 1025 0002 95B0     		sub	sp, sp, #84
 1026              	.LCFI23:
 1027              		.cfi_def_cfa_offset 96
 236:Core/Src/main.c ****   RCC_ClkInitTypeDef RCC_ClkInitStruct = {0};
 1028              		.loc 1 236 3 view .LVU301
 236:Core/Src/main.c ****   RCC_ClkInitTypeDef RCC_ClkInitStruct = {0};
 1029              		.loc 1 236 22 is_stmt 0 view .LVU302
 1030 0004 0024     		movs	r4, #0
 1031 0006 0D94     		str	r4, [sp, #52]
 1032 0008 0F94     		str	r4, [sp, #60]
 1033 000a 1094     		str	r4, [sp, #64]
 237:Core/Src/main.c ****   RCC_PeriphCLKInitTypeDef PeriphClkInit = {0};
 1034              		.loc 1 237 3 is_stmt 1 view .LVU303
 237:Core/Src/main.c ****   RCC_PeriphCLKInitTypeDef PeriphClkInit = {0};
 1035              		.loc 1 237 22 is_stmt 0 view .LVU304
 1036 000c 0594     		str	r4, [sp, #20]
 1037 000e 0694     		str	r4, [sp, #24]
 1038 0010 0794     		str	r4, [sp, #28]
 1039 0012 0894     		str	r4, [sp, #32]
 1040 0014 0994     		str	r4, [sp, #36]
 238:Core/Src/main.c **** 
 1041              		.loc 1 238 3 is_stmt 1 view .LVU305
 238:Core/Src/main.c **** 
 1042              		.loc 1 238 28 is_stmt 0 view .LVU306
 1043 0016 0194     		str	r4, [sp, #4]
 1044 0018 0294     		str	r4, [sp, #8]
 1045 001a 0394     		str	r4, [sp, #12]
 1046 001c 0494     		str	r4, [sp, #16]
 243:Core/Src/main.c ****   RCC_OscInitStruct.HSEState = RCC_HSE_ON;
 1047              		.loc 1 243 3 is_stmt 1 view .LVU307
 243:Core/Src/main.c ****   RCC_OscInitStruct.HSEState = RCC_HSE_ON;
 1048              		.loc 1 243 36 is_stmt 0 view .LVU308
 1049 001e 0122     		movs	r2, #1
 1050 0020 0A92     		str	r2, [sp, #40]
 244:Core/Src/main.c ****   RCC_OscInitStruct.HSEPredivValue = RCC_HSE_PREDIV_DIV1;
 1051              		.loc 1 244 3 is_stmt 1 view .LVU309
ARM GAS  C:\Users\arada\AppData\Local\Temp\ccA5l7kM.s 			page 34


 244:Core/Src/main.c ****   RCC_OscInitStruct.HSEPredivValue = RCC_HSE_PREDIV_DIV1;
 1052              		.loc 1 244 30 is_stmt 0 view .LVU310
 1053 0022 4FF48033 		mov	r3, #65536
 1054 0026 0B93     		str	r3, [sp, #44]
 245:Core/Src/main.c ****   RCC_OscInitStruct.HSIState = RCC_HSI_ON;
 1055              		.loc 1 245 3 is_stmt 1 view .LVU311
 245:Core/Src/main.c ****   RCC_OscInitStruct.HSIState = RCC_HSI_ON;
 1056              		.loc 1 245 36 is_stmt 0 view .LVU312
 1057 0028 0C94     		str	r4, [sp, #48]
 246:Core/Src/main.c ****   RCC_OscInitStruct.PLL.PLLState = RCC_PLL_ON;
 1058              		.loc 1 246 3 is_stmt 1 view .LVU313
 246:Core/Src/main.c ****   RCC_OscInitStruct.PLL.PLLState = RCC_PLL_ON;
 1059              		.loc 1 246 30 is_stmt 0 view .LVU314
 1060 002a 0E92     		str	r2, [sp, #56]
 247:Core/Src/main.c ****   RCC_OscInitStruct.PLL.PLLSource = RCC_PLLSOURCE_HSE;
 1061              		.loc 1 247 3 is_stmt 1 view .LVU315
 247:Core/Src/main.c ****   RCC_OscInitStruct.PLL.PLLSource = RCC_PLLSOURCE_HSE;
 1062              		.loc 1 247 34 is_stmt 0 view .LVU316
 1063 002c 0225     		movs	r5, #2
 1064 002e 1195     		str	r5, [sp, #68]
 248:Core/Src/main.c ****   RCC_OscInitStruct.PLL.PLLMUL = RCC_PLL_MUL9;
 1065              		.loc 1 248 3 is_stmt 1 view .LVU317
 248:Core/Src/main.c ****   RCC_OscInitStruct.PLL.PLLMUL = RCC_PLL_MUL9;
 1066              		.loc 1 248 35 is_stmt 0 view .LVU318
 1067 0030 1293     		str	r3, [sp, #72]
 249:Core/Src/main.c ****   if (HAL_RCC_OscConfig(&RCC_OscInitStruct) != HAL_OK)
 1068              		.loc 1 249 3 is_stmt 1 view .LVU319
 249:Core/Src/main.c ****   if (HAL_RCC_OscConfig(&RCC_OscInitStruct) != HAL_OK)
 1069              		.loc 1 249 32 is_stmt 0 view .LVU320
 1070 0032 4FF4E013 		mov	r3, #1835008
 1071 0036 1393     		str	r3, [sp, #76]
 250:Core/Src/main.c ****   {
 1072              		.loc 1 250 3 is_stmt 1 view .LVU321
 250:Core/Src/main.c ****   {
 1073              		.loc 1 250 7 is_stmt 0 view .LVU322
 1074 0038 0AA8     		add	r0, sp, #40
 1075 003a FFF7FEFF 		bl	HAL_RCC_OscConfig
 1076              	.LVL44:
 256:Core/Src/main.c ****                               |RCC_CLOCKTYPE_PCLK1|RCC_CLOCKTYPE_PCLK2;
 1077              		.loc 1 256 3 is_stmt 1 view .LVU323
 256:Core/Src/main.c ****                               |RCC_CLOCKTYPE_PCLK1|RCC_CLOCKTYPE_PCLK2;
 1078              		.loc 1 256 31 is_stmt 0 view .LVU324
 1079 003e 0F23     		movs	r3, #15
 1080 0040 0593     		str	r3, [sp, #20]
 258:Core/Src/main.c ****   RCC_ClkInitStruct.AHBCLKDivider = RCC_SYSCLK_DIV1;
 1081              		.loc 1 258 3 is_stmt 1 view .LVU325
 258:Core/Src/main.c ****   RCC_ClkInitStruct.AHBCLKDivider = RCC_SYSCLK_DIV1;
 1082              		.loc 1 258 34 is_stmt 0 view .LVU326
 1083 0042 0695     		str	r5, [sp, #24]
 259:Core/Src/main.c ****   RCC_ClkInitStruct.APB1CLKDivider = RCC_HCLK_DIV2;
 1084              		.loc 1 259 3 is_stmt 1 view .LVU327
 259:Core/Src/main.c ****   RCC_ClkInitStruct.APB1CLKDivider = RCC_HCLK_DIV2;
 1085              		.loc 1 259 35 is_stmt 0 view .LVU328
 1086 0044 0794     		str	r4, [sp, #28]
 260:Core/Src/main.c ****   RCC_ClkInitStruct.APB2CLKDivider = RCC_HCLK_DIV1;
 1087              		.loc 1 260 3 is_stmt 1 view .LVU329
 260:Core/Src/main.c ****   RCC_ClkInitStruct.APB2CLKDivider = RCC_HCLK_DIV1;
ARM GAS  C:\Users\arada\AppData\Local\Temp\ccA5l7kM.s 			page 35


 1088              		.loc 1 260 36 is_stmt 0 view .LVU330
 1089 0046 4FF48063 		mov	r3, #1024
 1090 004a 0893     		str	r3, [sp, #32]
 261:Core/Src/main.c **** 
 1091              		.loc 1 261 3 is_stmt 1 view .LVU331
 261:Core/Src/main.c **** 
 1092              		.loc 1 261 36 is_stmt 0 view .LVU332
 1093 004c 0994     		str	r4, [sp, #36]
 263:Core/Src/main.c ****   {
 1094              		.loc 1 263 3 is_stmt 1 view .LVU333
 263:Core/Src/main.c ****   {
 1095              		.loc 1 263 7 is_stmt 0 view .LVU334
 1096 004e 2946     		mov	r1, r5
 1097 0050 05A8     		add	r0, sp, #20
 1098 0052 FFF7FEFF 		bl	HAL_RCC_ClockConfig
 1099              	.LVL45:
 267:Core/Src/main.c ****   PeriphClkInit.AdcClockSelection = RCC_ADCPCLK2_DIV6;
 1100              		.loc 1 267 3 is_stmt 1 view .LVU335
 267:Core/Src/main.c ****   PeriphClkInit.AdcClockSelection = RCC_ADCPCLK2_DIV6;
 1101              		.loc 1 267 38 is_stmt 0 view .LVU336
 1102 0056 0195     		str	r5, [sp, #4]
 268:Core/Src/main.c ****   if (HAL_RCCEx_PeriphCLKConfig(&PeriphClkInit) != HAL_OK)
 1103              		.loc 1 268 3 is_stmt 1 view .LVU337
 268:Core/Src/main.c ****   if (HAL_RCCEx_PeriphCLKConfig(&PeriphClkInit) != HAL_OK)
 1104              		.loc 1 268 35 is_stmt 0 view .LVU338
 1105 0058 4FF40043 		mov	r3, #32768
 1106 005c 0393     		str	r3, [sp, #12]
 269:Core/Src/main.c ****   {
 1107              		.loc 1 269 3 is_stmt 1 view .LVU339
 269:Core/Src/main.c ****   {
 1108              		.loc 1 269 7 is_stmt 0 view .LVU340
 1109 005e 01A8     		add	r0, sp, #4
 1110 0060 FFF7FEFF 		bl	HAL_RCCEx_PeriphCLKConfig
 1111              	.LVL46:
 273:Core/Src/main.c **** 
 1112              		.loc 1 273 1 view .LVU341
 1113 0064 15B0     		add	sp, sp, #84
 1114              	.LCFI24:
 1115              		.cfi_def_cfa_offset 12
 1116              		@ sp needed
 1117 0066 30BD     		pop	{r4, r5, pc}
 1118              		.cfi_endproc
 1119              	.LFE74:
 1121              		.section	.rodata.main.str1.4,"aMS",%progbits,1
 1122              		.align	2
 1123              	.LC0:
 1124 0000 256C6900 		.ascii	"%li\000"
 1125              		.section	.text.main,"ax",%progbits
 1126              		.align	1
 1127              		.global	main
 1128              		.syntax unified
 1129              		.thumb
 1130              		.thumb_func
 1131              		.fpu softvfp
 1133              	main:
 1134              	.LFB73:
 128:Core/Src/main.c ****   /* USER CODE BEGIN 1 */
ARM GAS  C:\Users\arada\AppData\Local\Temp\ccA5l7kM.s 			page 36


 1135              		.loc 1 128 1 is_stmt 1 view -0
 1136              		.cfi_startproc
 1137              		@ args = 0, pretend = 0, frame = 104
 1138              		@ frame_needed = 0, uses_anonymous_args = 0
 1139 0000 30B5     		push	{r4, r5, lr}
 1140              	.LCFI25:
 1141              		.cfi_def_cfa_offset 12
 1142              		.cfi_offset 4, -12
 1143              		.cfi_offset 5, -8
 1144              		.cfi_offset 14, -4
 1145 0002 9BB0     		sub	sp, sp, #108
 1146              	.LCFI26:
 1147              		.cfi_def_cfa_offset 120
 135:Core/Src/main.c **** 
 1148              		.loc 1 135 3 view .LVU343
 1149 0004 FFF7FEFF 		bl	HAL_Init
 1150              	.LVL47:
 142:Core/Src/main.c **** 
 1151              		.loc 1 142 3 view .LVU344
 1152 0008 FFF7FEFF 		bl	SystemClock_Config
 1153              	.LVL48:
 149:Core/Src/main.c ****   MX_ADC1_Init();
 1154              		.loc 1 149 3 view .LVU345
 1155 000c FFF7FEFF 		bl	MX_GPIO_Init
 1156              	.LVL49:
 150:Core/Src/main.c ****   MX_ADC2_Init();
 1157              		.loc 1 150 3 view .LVU346
 1158 0010 FFF7FEFF 		bl	MX_ADC1_Init
 1159              	.LVL50:
 151:Core/Src/main.c ****   MX_TIM2_Init();
 1160              		.loc 1 151 3 view .LVU347
 1161 0014 FFF7FEFF 		bl	MX_ADC2_Init
 1162              	.LVL51:
 152:Core/Src/main.c ****   MX_USART1_UART_Init();
 1163              		.loc 1 152 3 view .LVU348
 1164 0018 FFF7FEFF 		bl	MX_TIM2_Init
 1165              	.LVL52:
 153:Core/Src/main.c ****   MX_USART2_UART_Init();
 1166              		.loc 1 153 3 view .LVU349
 1167 001c FFF7FEFF 		bl	MX_USART1_UART_Init
 1168              	.LVL53:
 154:Core/Src/main.c ****   MX_SPI2_Init();
 1169              		.loc 1 154 3 view .LVU350
 1170 0020 FFF7FEFF 		bl	MX_USART2_UART_Init
 1171              	.LVL54:
 155:Core/Src/main.c ****   /* USER CODE BEGIN 2 */
 1172              		.loc 1 155 3 view .LVU351
 1173 0024 FFF7FEFF 		bl	MX_SPI2_Init
 1174              	.LVL55:
 157:Core/Src/main.c **** 
 1175              		.loc 1 157 3 view .LVU352
 1176 0028 3A48     		ldr	r0, .L55
 1177 002a FFF7FEFF 		bl	HAL_ADCEx_Calibration_Start
 1178              	.LVL56:
 159:Core/Src/main.c ****   HAL_GPIO_WritePin(DAC_1_GPIO_Port, DAC_1_Pin, GPIO_PIN_RESET);
 1179              		.loc 1 159 3 view .LVU353
 160:Core/Src/main.c ****   dac_ctrl(PD_N , 1 , 1 , 0);
ARM GAS  C:\Users\arada\AppData\Local\Temp\ccA5l7kM.s 			page 37


 1180              		.loc 1 160 3 view .LVU354
 1181 002e 3A4C     		ldr	r4, .L55+4
 1182 0030 0022     		movs	r2, #0
 1183 0032 4FF48071 		mov	r1, #256
 1184 0036 2046     		mov	r0, r4
 1185 0038 FFF7FEFF 		bl	HAL_GPIO_WritePin
 1186              	.LVL57:
 161:Core/Src/main.c ****   HAL_GPIO_WritePin(DAC_1_GPIO_Port, DAC_1_Pin, GPIO_PIN_SET);
 1187              		.loc 1 161 3 view .LVU355
 1188 003c 0023     		movs	r3, #0
 1189 003e 0122     		movs	r2, #1
 1190 0040 1146     		mov	r1, r2
 1191 0042 1846     		mov	r0, r3
 1192 0044 FFF7FEFF 		bl	dac_ctrl
 1193              	.LVL58:
 162:Core/Src/main.c ****   HAL_GPIO_WritePin(DAC_2_GPIO_Port, DAC_2_Pin, GPIO_PIN_RESET);
 1194              		.loc 1 162 3 view .LVU356
 1195 0048 0122     		movs	r2, #1
 1196 004a 4FF48071 		mov	r1, #256
 1197 004e 2046     		mov	r0, r4
 1198 0050 FFF7FEFF 		bl	HAL_GPIO_WritePin
 1199              	.LVL59:
 163:Core/Src/main.c ****   dac_ctrl(PD_N , 1 , 1 , 0);
 1200              		.loc 1 163 3 view .LVU357
 1201 0054 0022     		movs	r2, #0
 1202 0056 4FF40071 		mov	r1, #512
 1203 005a 2046     		mov	r0, r4
 1204 005c FFF7FEFF 		bl	HAL_GPIO_WritePin
 1205              	.LVL60:
 164:Core/Src/main.c ****   HAL_GPIO_WritePin(DAC_2_GPIO_Port, DAC_2_Pin, GPIO_PIN_SET);
 1206              		.loc 1 164 3 view .LVU358
 1207 0060 0023     		movs	r3, #0
 1208 0062 0122     		movs	r2, #1
 1209 0064 1146     		mov	r1, r2
 1210 0066 1846     		mov	r0, r3
 1211 0068 FFF7FEFF 		bl	dac_ctrl
 1212              	.LVL61:
 165:Core/Src/main.c ****   HAL_GPIO_WritePin(DAC_3_GPIO_Port, DAC_3_Pin, GPIO_PIN_RESET);
 1213              		.loc 1 165 3 view .LVU359
 1214 006c 0122     		movs	r2, #1
 1215 006e 4FF40071 		mov	r1, #512
 1216 0072 2046     		mov	r0, r4
 1217 0074 FFF7FEFF 		bl	HAL_GPIO_WritePin
 1218              	.LVL62:
 166:Core/Src/main.c ****   dac_ctrl(PD_N , 1 , 1 , 0);
 1219              		.loc 1 166 3 view .LVU360
 1220 0078 0022     		movs	r2, #0
 1221 007a 4FF48061 		mov	r1, #1024
 1222 007e 2046     		mov	r0, r4
 1223 0080 FFF7FEFF 		bl	HAL_GPIO_WritePin
 1224              	.LVL63:
 167:Core/Src/main.c ****   HAL_GPIO_WritePin(DAC_3_GPIO_Port, DAC_3_Pin, GPIO_PIN_SET);
 1225              		.loc 1 167 3 view .LVU361
 1226 0084 0023     		movs	r3, #0
 1227 0086 0122     		movs	r2, #1
 1228 0088 1146     		mov	r1, r2
 1229 008a 1846     		mov	r0, r3
ARM GAS  C:\Users\arada\AppData\Local\Temp\ccA5l7kM.s 			page 38


 1230 008c FFF7FEFF 		bl	dac_ctrl
 1231              	.LVL64:
 168:Core/Src/main.c ****   /*SW_I2C_initial();
 1232              		.loc 1 168 3 view .LVU362
 1233 0090 0122     		movs	r2, #1
 1234 0092 4FF48061 		mov	r1, #1024
 1235 0096 2046     		mov	r0, r4
 1236 0098 FFF7FEFF 		bl	HAL_GPIO_WritePin
 1237              	.LVL65:
 159:Core/Src/main.c ****   HAL_GPIO_WritePin(DAC_1_GPIO_Port, DAC_1_Pin, GPIO_PIN_RESET);
 1238              		.loc 1 159 12 is_stmt 0 view .LVU363
 1239 009c 0025     		movs	r5, #0
 1240 009e 0EE0     		b	.L51
 1241              	.LVL66:
 1242              	.L54:
 1243              	.LBB7:
 217:Core/Src/main.c ****       millis = HAL_GetTick();
 1244              		.loc 1 217 7 is_stmt 1 view .LVU364
 1245 00a0 8021     		movs	r1, #128
 1246 00a2 1E48     		ldr	r0, .L55+8
 1247 00a4 FFF7FEFF 		bl	HAL_GPIO_TogglePin
 1248              	.LVL67:
 218:Core/Src/main.c ****       char out[100];
 1249              		.loc 1 218 7 view .LVU365
 218:Core/Src/main.c ****       char out[100];
 1250              		.loc 1 218 16 is_stmt 0 view .LVU366
 1251 00a8 FFF7FEFF 		bl	HAL_GetTick
 1252              	.LVL68:
 1253 00ac 0546     		mov	r5, r0
 1254              	.LVL69:
 219:Core/Src/main.c ****       sprintf(out , "%li" , millis/1000);
 1255              		.loc 1 219 7 is_stmt 1 view .LVU367
 220:Core/Src/main.c ****       /*ssd1306_Fill(Black);
 1256              		.loc 1 220 7 view .LVU368
 1257 00ae 1C4A     		ldr	r2, .L55+12
 1258 00b0 A2FB0032 		umull	r3, r2, r2, r0
 1259 00b4 9209     		lsrs	r2, r2, #6
 1260 00b6 1B49     		ldr	r1, .L55+16
 1261 00b8 01A8     		add	r0, sp, #4
 1262              	.LVL70:
 220:Core/Src/main.c ****       /*ssd1306_Fill(Black);
 1263              		.loc 1 220 7 is_stmt 0 view .LVU369
 1264 00ba FFF7FEFF 		bl	sprintf
 1265              	.LVL71:
 1266              	.L51:
 220:Core/Src/main.c ****       /*ssd1306_Fill(Black);
 1267              		.loc 1 220 7 view .LVU370
 1268              	.LBE7:
 176:Core/Src/main.c ****   {
 1269              		.loc 1 176 3 is_stmt 1 view .LVU371
 211:Core/Src/main.c ****     dac_wu(655 * ((HAL_GetTick()/30)%40 + 1));
 1270              		.loc 1 211 5 view .LVU372
 1271 00be 164C     		ldr	r4, .L55+4
 1272 00c0 0022     		movs	r2, #0
 1273 00c2 4FF40071 		mov	r1, #512
 1274 00c6 2046     		mov	r0, r4
 1275 00c8 FFF7FEFF 		bl	HAL_GPIO_WritePin
ARM GAS  C:\Users\arada\AppData\Local\Temp\ccA5l7kM.s 			page 39


 1276              	.LVL72:
 212:Core/Src/main.c ****     HAL_GPIO_WritePin(DAC_2_GPIO_Port, DAC_2_Pin, GPIO_PIN_SET);
 1277              		.loc 1 212 5 view .LVU373
 212:Core/Src/main.c ****     HAL_GPIO_WritePin(DAC_2_GPIO_Port, DAC_2_Pin, GPIO_PIN_SET);
 1278              		.loc 1 212 20 is_stmt 0 view .LVU374
 1279 00cc FFF7FEFF 		bl	HAL_GetTick
 1280              	.LVL73:
 212:Core/Src/main.c ****     HAL_GPIO_WritePin(DAC_2_GPIO_Port, DAC_2_Pin, GPIO_PIN_SET);
 1281              		.loc 1 212 33 view .LVU375
 1282 00d0 154B     		ldr	r3, .L55+20
 1283 00d2 A3FB0030 		umull	r3, r0, r3, r0
 1284 00d6 0009     		lsrs	r0, r0, #4
 212:Core/Src/main.c ****     HAL_GPIO_WritePin(DAC_2_GPIO_Port, DAC_2_Pin, GPIO_PIN_SET);
 1285              		.loc 1 212 37 view .LVU376
 1286 00d8 144B     		ldr	r3, .L55+24
 1287 00da A3FB0023 		umull	r2, r3, r3, r0
 1288 00de 5B09     		lsrs	r3, r3, #5
 1289 00e0 03EB8303 		add	r3, r3, r3, lsl #2
 1290 00e4 A0EBC303 		sub	r3, r0, r3, lsl #3
 212:Core/Src/main.c ****     HAL_GPIO_WritePin(DAC_2_GPIO_Port, DAC_2_Pin, GPIO_PIN_SET);
 1291              		.loc 1 212 5 view .LVU377
 1292 00e8 0133     		adds	r3, r3, #1
 1293 00ea 03EB8310 		add	r0, r3, r3, lsl #6
 1294 00ee 03EB4003 		add	r3, r3, r0, lsl #1
 1295 00f2 03EB8303 		add	r3, r3, r3, lsl #2
 1296 00f6 98B2     		uxth	r0, r3
 1297 00f8 FFF7FEFF 		bl	dac_wu
 1298              	.LVL74:
 213:Core/Src/main.c **** 
 1299              		.loc 1 213 5 is_stmt 1 view .LVU378
 1300 00fc 0122     		movs	r2, #1
 1301 00fe 4FF40071 		mov	r1, #512
 1302 0102 2046     		mov	r0, r4
 1303 0104 FFF7FEFF 		bl	HAL_GPIO_WritePin
 1304              	.LVL75:
 215:Core/Src/main.c ****     {
 1305              		.loc 1 215 5 view .LVU379
 215:Core/Src/main.c ****     {
 1306              		.loc 1 215 8 is_stmt 0 view .LVU380
 1307 0108 FFF7FEFF 		bl	HAL_GetTick
 1308              	.LVL76:
 215:Core/Src/main.c ****     {
 1309              		.loc 1 215 22 view .LVU381
 1310 010c 401B     		subs	r0, r0, r5
 215:Core/Src/main.c ****     {
 1311              		.loc 1 215 7 view .LVU382
 1312 010e 6428     		cmp	r0, #100
 1313 0110 D5D9     		bls	.L51
 1314 0112 C5E7     		b	.L54
 1315              	.L56:
 1316              		.align	2
 1317              	.L55:
 1318 0114 00000000 		.word	hadc1
 1319 0118 000C0140 		.word	1073810432
 1320 011c 00080140 		.word	1073809408
 1321 0120 D34D6210 		.word	274877907
 1322 0124 00000000 		.word	.LC0
ARM GAS  C:\Users\arada\AppData\Local\Temp\ccA5l7kM.s 			page 40


 1323 0128 89888888 		.word	-2004318071
 1324 012c CDCCCCCC 		.word	-858993459
 1325              		.cfi_endproc
 1326              	.LFE73:
 1328              		.section	.text._write,"ax",%progbits
 1329              		.align	1
 1330              		.global	_write
 1331              		.syntax unified
 1332              		.thumb
 1333              		.thumb_func
 1334              		.fpu softvfp
 1336              	_write:
 1337              	.LVL77:
 1338              	.LFB82:
 604:Core/Src/main.c **** 
 605:Core/Src/main.c **** /* USER CODE BEGIN 4 */
 606:Core/Src/main.c **** int _write(int fd, char * ptr, int len)
 607:Core/Src/main.c **** {
 1339              		.loc 1 607 1 is_stmt 1 view -0
 1340              		.cfi_startproc
 1341              		@ args = 0, pretend = 0, frame = 0
 1342              		@ frame_needed = 0, uses_anonymous_args = 0
 1343              		.loc 1 607 1 is_stmt 0 view .LVU384
 1344 0000 10B5     		push	{r4, lr}
 1345              	.LCFI27:
 1346              		.cfi_def_cfa_offset 8
 1347              		.cfi_offset 4, -8
 1348              		.cfi_offset 14, -4
 1349 0002 1446     		mov	r4, r2
 608:Core/Src/main.c **** 	HAL_UART_Transmit(&huart1, (uint8_t *) ptr, len, HAL_MAX_DELAY);
 1350              		.loc 1 608 2 is_stmt 1 view .LVU385
 1351 0004 4FF0FF33 		mov	r3, #-1
 1352 0008 92B2     		uxth	r2, r2
 1353              	.LVL78:
 1354              		.loc 1 608 2 is_stmt 0 view .LVU386
 1355 000a 0248     		ldr	r0, .L59
 1356              	.LVL79:
 1357              		.loc 1 608 2 view .LVU387
 1358 000c FFF7FEFF 		bl	HAL_UART_Transmit
 1359              	.LVL80:
 609:Core/Src/main.c **** 	return len;
 1360              		.loc 1 609 2 is_stmt 1 view .LVU388
 610:Core/Src/main.c **** }
 1361              		.loc 1 610 1 is_stmt 0 view .LVU389
 1362 0010 2046     		mov	r0, r4
 1363 0012 10BD     		pop	{r4, pc}
 1364              	.LVL81:
 1365              	.L60:
 1366              		.loc 1 610 1 view .LVU390
 1367              		.align	2
 1368              	.L59:
 1369 0014 00000000 		.word	huart1
 1370              		.cfi_endproc
 1371              	.LFE82:
 1373              		.section	.text.__io_putchar,"ax",%progbits
 1374              		.align	1
 1375              		.global	__io_putchar
ARM GAS  C:\Users\arada\AppData\Local\Temp\ccA5l7kM.s 			page 41


 1376              		.syntax unified
 1377              		.thumb
 1378              		.thumb_func
 1379              		.fpu softvfp
 1381              	__io_putchar:
 1382              	.LVL82:
 1383              	.LFB83:
 611:Core/Src/main.c **** PUTCHAR_PROTOTYPE
 612:Core/Src/main.c **** {
 1384              		.loc 1 612 1 is_stmt 1 view -0
 1385              		.cfi_startproc
 1386              		@ args = 0, pretend = 0, frame = 8
 1387              		@ frame_needed = 0, uses_anonymous_args = 0
 1388              		.loc 1 612 1 is_stmt 0 view .LVU392
 1389 0000 00B5     		push	{lr}
 1390              	.LCFI28:
 1391              		.cfi_def_cfa_offset 4
 1392              		.cfi_offset 14, -4
 1393 0002 83B0     		sub	sp, sp, #12
 1394              	.LCFI29:
 1395              		.cfi_def_cfa_offset 16
 1396 0004 0190     		str	r0, [sp, #4]
 613:Core/Src/main.c **** 	HAL_UART_Transmit(&huart1, (uint8_t *)&ch, 1, HAL_MAX_DELAY);
 1397              		.loc 1 613 2 is_stmt 1 view .LVU393
 1398 0006 4FF0FF33 		mov	r3, #-1
 1399 000a 0122     		movs	r2, #1
 1400 000c 01A9     		add	r1, sp, #4
 1401 000e 0348     		ldr	r0, .L63
 1402              	.LVL83:
 1403              		.loc 1 613 2 is_stmt 0 view .LVU394
 1404 0010 FFF7FEFF 		bl	HAL_UART_Transmit
 1405              	.LVL84:
 614:Core/Src/main.c **** 	return ch;
 1406              		.loc 1 614 2 is_stmt 1 view .LVU395
 615:Core/Src/main.c **** }
 1407              		.loc 1 615 1 is_stmt 0 view .LVU396
 1408 0014 0198     		ldr	r0, [sp, #4]
 1409 0016 03B0     		add	sp, sp, #12
 1410              	.LCFI30:
 1411              		.cfi_def_cfa_offset 4
 1412              		@ sp needed
 1413 0018 5DF804FB 		ldr	pc, [sp], #4
 1414              	.L64:
 1415              		.align	2
 1416              	.L63:
 1417 001c 00000000 		.word	huart1
 1418              		.cfi_endproc
 1419              	.LFE83:
 1421              		.section	.text.HAL_TIM_PeriodElapsedCallback,"ax",%progbits
 1422              		.align	1
 1423              		.global	HAL_TIM_PeriodElapsedCallback
 1424              		.syntax unified
 1425              		.thumb
 1426              		.thumb_func
 1427              		.fpu softvfp
 1429              	HAL_TIM_PeriodElapsedCallback:
 1430              	.LVL85:
ARM GAS  C:\Users\arada\AppData\Local\Temp\ccA5l7kM.s 			page 42


 1431              	.LFB84:
 616:Core/Src/main.c **** /* USER CODE END 4 */
 617:Core/Src/main.c **** 
 618:Core/Src/main.c **** /**
 619:Core/Src/main.c ****   * @brief  Period elapsed callback in non blocking mode
 620:Core/Src/main.c ****   * @note   This function is called  when TIM1 interrupt took place, inside
 621:Core/Src/main.c ****   * HAL_TIM_IRQHandler(). It makes a direct call to HAL_IncTick() to increment
 622:Core/Src/main.c ****   * a global variable "uwTick" used as application time base.
 623:Core/Src/main.c ****   * @param  htim : TIM handle
 624:Core/Src/main.c ****   * @retval None
 625:Core/Src/main.c ****   */
 626:Core/Src/main.c **** void HAL_TIM_PeriodElapsedCallback(TIM_HandleTypeDef *htim)
 627:Core/Src/main.c **** {
 1432              		.loc 1 627 1 is_stmt 1 view -0
 1433              		.cfi_startproc
 1434              		@ args = 0, pretend = 0, frame = 0
 1435              		@ frame_needed = 0, uses_anonymous_args = 0
 1436              		.loc 1 627 1 is_stmt 0 view .LVU398
 1437 0000 08B5     		push	{r3, lr}
 1438              	.LCFI31:
 1439              		.cfi_def_cfa_offset 8
 1440              		.cfi_offset 3, -8
 1441              		.cfi_offset 14, -4
 628:Core/Src/main.c ****   /* USER CODE BEGIN Callback 0 */
 629:Core/Src/main.c **** 
 630:Core/Src/main.c ****   /* USER CODE END Callback 0 */
 631:Core/Src/main.c ****   if (htim->Instance == TIM1) {
 1442              		.loc 1 631 3 is_stmt 1 view .LVU399
 1443              		.loc 1 631 11 is_stmt 0 view .LVU400
 1444 0002 0268     		ldr	r2, [r0]
 1445              		.loc 1 631 6 view .LVU401
 1446 0004 034B     		ldr	r3, .L69
 1447 0006 9A42     		cmp	r2, r3
 1448 0008 00D0     		beq	.L68
 1449              	.LVL86:
 1450              	.L65:
 632:Core/Src/main.c ****     HAL_IncTick();
 633:Core/Src/main.c ****   }
 634:Core/Src/main.c ****   /* USER CODE BEGIN Callback 1 */
 635:Core/Src/main.c **** 
 636:Core/Src/main.c ****   /* USER CODE END Callback 1 */
 637:Core/Src/main.c **** }
 1451              		.loc 1 637 1 view .LVU402
 1452 000a 08BD     		pop	{r3, pc}
 1453              	.LVL87:
 1454              	.L68:
 632:Core/Src/main.c ****     HAL_IncTick();
 1455              		.loc 1 632 5 is_stmt 1 view .LVU403
 1456 000c FFF7FEFF 		bl	HAL_IncTick
 1457              	.LVL88:
 1458              		.loc 1 637 1 is_stmt 0 view .LVU404
 1459 0010 FBE7     		b	.L65
 1460              	.L70:
 1461 0012 00BF     		.align	2
 1462              	.L69:
 1463 0014 002C0140 		.word	1073818624
 1464              		.cfi_endproc
ARM GAS  C:\Users\arada\AppData\Local\Temp\ccA5l7kM.s 			page 43


 1465              	.LFE84:
 1467              		.section	.text.Error_Handler,"ax",%progbits
 1468              		.align	1
 1469              		.global	Error_Handler
 1470              		.syntax unified
 1471              		.thumb
 1472              		.thumb_func
 1473              		.fpu softvfp
 1475              	Error_Handler:
 1476              	.LFB85:
 638:Core/Src/main.c **** 
 639:Core/Src/main.c **** /**
 640:Core/Src/main.c ****   * @brief  This function is executed in case of error occurrence.
 641:Core/Src/main.c ****   * @retval None
 642:Core/Src/main.c ****   */
 643:Core/Src/main.c **** void Error_Handler(void)
 644:Core/Src/main.c **** {
 1477              		.loc 1 644 1 is_stmt 1 view -0
 1478              		.cfi_startproc
 1479              		@ args = 0, pretend = 0, frame = 0
 1480              		@ frame_needed = 0, uses_anonymous_args = 0
 1481              		@ link register save eliminated.
 645:Core/Src/main.c ****   /* USER CODE BEGIN Error_Handler_Debug */
 646:Core/Src/main.c ****   /* User can add his own implementation to report the HAL error return state */
 647:Core/Src/main.c **** 
 648:Core/Src/main.c ****   /* USER CODE END Error_Handler_Debug */
 649:Core/Src/main.c **** }
 1482              		.loc 1 649 1 view .LVU406
 1483 0000 7047     		bx	lr
 1484              		.cfi_endproc
 1485              	.LFE85:
 1487              		.comm	huart2,64,4
 1488              		.comm	huart1,64,4
 1489              		.comm	htim2,72,4
 1490              		.comm	hspi2,88,4
 1491              		.comm	hadc2,48,4
 1492              		.comm	hadc1,48,4
 1493              		.text
 1494              	.Letext0:
 1495              		.file 2 "c:\\dev\\gcc-arm-none-eabi-9-2020-q2-update-win32\\arm-none-eabi\\include\\machine\\_defa
 1496              		.file 3 "c:\\dev\\gcc-arm-none-eabi-9-2020-q2-update-win32\\arm-none-eabi\\include\\sys\\_stdint.h
 1497              		.file 4 "Drivers/CMSIS/Include/core_cm3.h"
 1498              		.file 5 "Drivers/CMSIS/Device/ST/STM32F1xx/Include/system_stm32f1xx.h"
 1499              		.file 6 "Drivers/CMSIS/Device/ST/STM32F1xx/Include/stm32f103xb.h"
 1500              		.file 7 "Drivers/CMSIS/Device/ST/STM32F1xx/Include/stm32f1xx.h"
 1501              		.file 8 "Drivers/STM32F1xx_HAL_Driver/Inc/stm32f1xx_hal_def.h"
 1502              		.file 9 "Drivers/STM32F1xx_HAL_Driver/Inc/stm32f1xx_hal_rcc.h"
 1503              		.file 10 "Drivers/STM32F1xx_HAL_Driver/Inc/stm32f1xx_hal_rcc_ex.h"
 1504              		.file 11 "Drivers/STM32F1xx_HAL_Driver/Inc/stm32f1xx_hal_gpio.h"
 1505              		.file 12 "Drivers/STM32F1xx_HAL_Driver/Inc/stm32f1xx_hal_dma.h"
 1506              		.file 13 "Drivers/STM32F1xx_HAL_Driver/Inc/stm32f1xx_hal_adc.h"
 1507              		.file 14 "Drivers/STM32F1xx_HAL_Driver/Inc/stm32f1xx_hal_spi.h"
 1508              		.file 15 "Drivers/STM32F1xx_HAL_Driver/Inc/stm32f1xx_hal_tim.h"
 1509              		.file 16 "Drivers/STM32F1xx_HAL_Driver/Inc/stm32f1xx_hal_uart.h"
 1510              		.file 17 "Drivers/STM32F1xx_HAL_Driver/Inc/stm32f1xx_hal.h"
 1511              		.file 18 "c:\\dev\\gcc-arm-none-eabi-9-2020-q2-update-win32\\lib\\gcc\\arm-none-eabi\\9.3.1\\inclu
 1512              		.file 19 "c:\\dev\\gcc-arm-none-eabi-9-2020-q2-update-win32\\arm-none-eabi\\include\\sys\\_types.h
ARM GAS  C:\Users\arada\AppData\Local\Temp\ccA5l7kM.s 			page 44


 1513              		.file 20 "c:\\dev\\gcc-arm-none-eabi-9-2020-q2-update-win32\\arm-none-eabi\\include\\sys\\reent.h"
 1514              		.file 21 "c:\\dev\\gcc-arm-none-eabi-9-2020-q2-update-win32\\arm-none-eabi\\include\\sys\\lock.h"
 1515              		.file 22 "Core/Inc/ssd1306/ssd1306_fonts.h"
 1516              		.file 23 "Drivers/STM32F1xx_HAL_Driver/Inc/stm32f1xx_hal_tim_ex.h"
 1517              		.file 24 "c:\\dev\\gcc-arm-none-eabi-9-2020-q2-update-win32\\arm-none-eabi\\include\\stdio.h"
 1518              		.file 25 "Drivers/STM32F1xx_HAL_Driver/Inc/stm32f1xx_hal_adc_ex.h"
ARM GAS  C:\Users\arada\AppData\Local\Temp\ccA5l7kM.s 			page 45

