ARM GAS  C:\Users\arada\AppData\Local\Temp\cc2X3IhP.s 			page 1


   1              		.cpu cortex-m3
   2              		.eabi_attribute 20, 1
   3              		.eabi_attribute 21, 1
   4              		.eabi_attribute 23, 3
   5              		.eabi_attribute 24, 1
   6              		.eabi_attribute 25, 1
   7              		.eabi_attribute 26, 1
   8              		.eabi_attribute 30, 1
   9              		.eabi_attribute 34, 1
  10              		.eabi_attribute 18, 4
  11              		.file	"ssd1306.c"
  12              		.text
  13              	.Ltext0:
  14              		.cfi_sections	.debug_frame
  15              		.global	__aeabi_f2d
  16              		.global	__aeabi_dmul
  17              		.global	__aeabi_ddiv
  18              		.global	__aeabi_d2f
  19              		.section	.text.ssd1306_DegToRad,"ax",%progbits
  20              		.align	1
  21              		.arch armv7-m
  22              		.syntax unified
  23              		.thumb
  24              		.thumb_func
  25              		.fpu softvfp
  27              	ssd1306_DegToRad:
  28              	.LVL0:
  29              	.LFB81:
  30              		.file 1 "Core/Inc/ssd1306/ssd1306.c"
   1:Core/Inc/ssd1306/ssd1306.c **** #include "ssd1306.h"
   2:Core/Inc/ssd1306/ssd1306.c **** #include "ssd1306_conf.h"
   3:Core/Inc/ssd1306/ssd1306.c **** #include "i2c_sw\i2c_sw.h"
   4:Core/Inc/ssd1306/ssd1306.c **** #include <math.h>
   5:Core/Inc/ssd1306/ssd1306.c **** #include <stdlib.h>
   6:Core/Inc/ssd1306/ssd1306.c **** #include <string.h>  // For memcpy
   7:Core/Inc/ssd1306/ssd1306.c **** 
   8:Core/Inc/ssd1306/ssd1306.c **** void ssd1306_Reset(void) {
   9:Core/Inc/ssd1306/ssd1306.c ****     /* for I2C - do nothing */
  10:Core/Inc/ssd1306/ssd1306.c ****     HAL_GPIO_WritePin(GPIOB, GPIO_PIN_1, GPIO_PIN_RESET);
  11:Core/Inc/ssd1306/ssd1306.c ****     HAL_Delay(10);
  12:Core/Inc/ssd1306/ssd1306.c ****     HAL_GPIO_WritePin(GPIOB, GPIO_PIN_1, GPIO_PIN_SET);
  13:Core/Inc/ssd1306/ssd1306.c ****     HAL_Delay(10);
  14:Core/Inc/ssd1306/ssd1306.c **** }
  15:Core/Inc/ssd1306/ssd1306.c **** 
  16:Core/Inc/ssd1306/ssd1306.c **** // Send a byte to the command register
  17:Core/Inc/ssd1306/ssd1306.c **** void ssd1306_WriteCommand(uint8_t byte) {
  18:Core/Inc/ssd1306/ssd1306.c ****     //HAL_I2C_Mem_Write(&SSD1306_I2C_PORT, SSD1306_I2C_ADDR, 0x00, 1, &byte, 1, HAL_MAX_DELAY);
  19:Core/Inc/ssd1306/ssd1306.c ****     SW_I2C_WriteControl_8Bit(SW_I2C1 , 0x3C << 1, 0x00 , byte);
  20:Core/Inc/ssd1306/ssd1306.c **** }
  21:Core/Inc/ssd1306/ssd1306.c **** 
  22:Core/Inc/ssd1306/ssd1306.c **** // Send data
  23:Core/Inc/ssd1306/ssd1306.c **** void ssd1306_WriteData(uint8_t* buffer, size_t buff_size) {
  24:Core/Inc/ssd1306/ssd1306.c ****     //HAL_I2C_Mem_Write(&SSD1306_I2C_PORT, SSD1306_I2C_ADDR, 0x40, 1, buffer, buff_size, HAL_MAX_DE
  25:Core/Inc/ssd1306/ssd1306.c ****     printf("%i\r\n" , SW_I2C_WritenControl_8Bit(SW_I2C1 , 0x3C << 1 , 0x40 , buff_size , buffer));
  26:Core/Inc/ssd1306/ssd1306.c **** }
  27:Core/Inc/ssd1306/ssd1306.c **** 
  28:Core/Inc/ssd1306/ssd1306.c **** // Screenbuffer
ARM GAS  C:\Users\arada\AppData\Local\Temp\cc2X3IhP.s 			page 2


  29:Core/Inc/ssd1306/ssd1306.c **** static uint8_t SSD1306_Buffer[SSD1306_BUFFER_SIZE];
  30:Core/Inc/ssd1306/ssd1306.c **** 
  31:Core/Inc/ssd1306/ssd1306.c **** // Screen object
  32:Core/Inc/ssd1306/ssd1306.c **** static SSD1306_t SSD1306;
  33:Core/Inc/ssd1306/ssd1306.c **** 
  34:Core/Inc/ssd1306/ssd1306.c **** /* Fills the Screenbuffer with values from a given buffer of a fixed length */
  35:Core/Inc/ssd1306/ssd1306.c **** SSD1306_Error_t ssd1306_FillBuffer(uint8_t* buf, uint32_t len) {
  36:Core/Inc/ssd1306/ssd1306.c ****     SSD1306_Error_t ret = SSD1306_ERR;
  37:Core/Inc/ssd1306/ssd1306.c ****     if (len <= SSD1306_BUFFER_SIZE) {
  38:Core/Inc/ssd1306/ssd1306.c ****         memcpy(SSD1306_Buffer,buf,len);
  39:Core/Inc/ssd1306/ssd1306.c ****         ret = SSD1306_OK;
  40:Core/Inc/ssd1306/ssd1306.c ****     }
  41:Core/Inc/ssd1306/ssd1306.c ****     return ret;
  42:Core/Inc/ssd1306/ssd1306.c **** }
  43:Core/Inc/ssd1306/ssd1306.c **** 
  44:Core/Inc/ssd1306/ssd1306.c **** // Initialize the oled screen
  45:Core/Inc/ssd1306/ssd1306.c **** void ssd1306_Init(void) {
  46:Core/Inc/ssd1306/ssd1306.c ****     // Reset OLED
  47:Core/Inc/ssd1306/ssd1306.c ****     ssd1306_Reset();
  48:Core/Inc/ssd1306/ssd1306.c **** 
  49:Core/Inc/ssd1306/ssd1306.c ****     // Wait for the screen to boot
  50:Core/Inc/ssd1306/ssd1306.c ****     HAL_Delay(100);
  51:Core/Inc/ssd1306/ssd1306.c **** 
  52:Core/Inc/ssd1306/ssd1306.c ****     // Init OLED
  53:Core/Inc/ssd1306/ssd1306.c ****     ssd1306_SetDisplayOn(0); //display off
  54:Core/Inc/ssd1306/ssd1306.c **** 
  55:Core/Inc/ssd1306/ssd1306.c ****     ssd1306_WriteCommand(0x20); //Set Memory Addressing Mode
  56:Core/Inc/ssd1306/ssd1306.c ****     ssd1306_WriteCommand(0x00); // 00b,Horizontal Addressing Mode; 01b,Vertical Addressing Mode;
  57:Core/Inc/ssd1306/ssd1306.c ****                                 // 10b,Page Addressing Mode (RESET); 11b,Invalid
  58:Core/Inc/ssd1306/ssd1306.c **** 
  59:Core/Inc/ssd1306/ssd1306.c ****     ssd1306_WriteCommand(0xB0); //Set Page Start Address for Page Addressing Mode,0-7
  60:Core/Inc/ssd1306/ssd1306.c **** 
  61:Core/Inc/ssd1306/ssd1306.c **** #ifdef SSD1306_MIRROR_VERT
  62:Core/Inc/ssd1306/ssd1306.c ****     ssd1306_WriteCommand(0xC0); // Mirror vertically
  63:Core/Inc/ssd1306/ssd1306.c **** #else
  64:Core/Inc/ssd1306/ssd1306.c ****     ssd1306_WriteCommand(0xC8); //Set COM Output Scan Direction
  65:Core/Inc/ssd1306/ssd1306.c **** #endif
  66:Core/Inc/ssd1306/ssd1306.c **** 
  67:Core/Inc/ssd1306/ssd1306.c ****     ssd1306_WriteCommand(0x02); //---set low column address
  68:Core/Inc/ssd1306/ssd1306.c ****     ssd1306_WriteCommand(0x10); //---set high column address
  69:Core/Inc/ssd1306/ssd1306.c **** 
  70:Core/Inc/ssd1306/ssd1306.c ****     ssd1306_WriteCommand(0x40); //--set start line address - CHECK
  71:Core/Inc/ssd1306/ssd1306.c **** 
  72:Core/Inc/ssd1306/ssd1306.c **** #ifdef SSD1306_MIRROR_HORIZ
  73:Core/Inc/ssd1306/ssd1306.c ****     ssd1306_WriteCommand(0xA0); // Mirror horizontally
  74:Core/Inc/ssd1306/ssd1306.c **** #else
  75:Core/Inc/ssd1306/ssd1306.c ****     ssd1306_WriteCommand(0xA1); //--set segment re-map 0 to 127 - CHECK
  76:Core/Inc/ssd1306/ssd1306.c **** #endif
  77:Core/Inc/ssd1306/ssd1306.c **** 
  78:Core/Inc/ssd1306/ssd1306.c **** #ifdef SSD1306_INVERSE_COLOR
  79:Core/Inc/ssd1306/ssd1306.c ****     ssd1306_WriteCommand(0xA7); //--set inverse color
  80:Core/Inc/ssd1306/ssd1306.c **** #else
  81:Core/Inc/ssd1306/ssd1306.c ****     ssd1306_WriteCommand(0xA6); //--set normal color
  82:Core/Inc/ssd1306/ssd1306.c **** #endif
  83:Core/Inc/ssd1306/ssd1306.c **** 
  84:Core/Inc/ssd1306/ssd1306.c **** // Set multiplex ratio.
  85:Core/Inc/ssd1306/ssd1306.c **** #if (SSD1306_HEIGHT == 128)
ARM GAS  C:\Users\arada\AppData\Local\Temp\cc2X3IhP.s 			page 3


  86:Core/Inc/ssd1306/ssd1306.c ****     // Found in the Luma Python lib for SH1106.
  87:Core/Inc/ssd1306/ssd1306.c ****     ssd1306_WriteCommand(0xFF);
  88:Core/Inc/ssd1306/ssd1306.c **** #else
  89:Core/Inc/ssd1306/ssd1306.c ****     ssd1306_WriteCommand(0xA8); //--set multiplex ratio(1 to 64) - CHECK
  90:Core/Inc/ssd1306/ssd1306.c **** #endif
  91:Core/Inc/ssd1306/ssd1306.c **** 
  92:Core/Inc/ssd1306/ssd1306.c **** #if (SSD1306_HEIGHT == 32)
  93:Core/Inc/ssd1306/ssd1306.c ****     ssd1306_WriteCommand(0x1F); //
  94:Core/Inc/ssd1306/ssd1306.c **** #elif (SSD1306_HEIGHT == 64)
  95:Core/Inc/ssd1306/ssd1306.c ****     ssd1306_WriteCommand(0x3F); //
  96:Core/Inc/ssd1306/ssd1306.c **** #elif (SSD1306_HEIGHT == 128)
  97:Core/Inc/ssd1306/ssd1306.c ****     ssd1306_WriteCommand(0x3F); // Seems to work for 128px high displays too.
  98:Core/Inc/ssd1306/ssd1306.c **** #else
  99:Core/Inc/ssd1306/ssd1306.c **** #error "Only 32, 64, or 128 lines of height are supported!"
 100:Core/Inc/ssd1306/ssd1306.c **** #endif
 101:Core/Inc/ssd1306/ssd1306.c **** 
 102:Core/Inc/ssd1306/ssd1306.c ****     ssd1306_WriteCommand(0xA4); //0xa4,Output follows RAM content;0xa5,Output ignores RAM content
 103:Core/Inc/ssd1306/ssd1306.c **** 
 104:Core/Inc/ssd1306/ssd1306.c ****     ssd1306_WriteCommand(0xD3); //-set display offset - CHECK
 105:Core/Inc/ssd1306/ssd1306.c ****     ssd1306_WriteCommand(0x00); //-not offset
 106:Core/Inc/ssd1306/ssd1306.c **** 
 107:Core/Inc/ssd1306/ssd1306.c ****     ssd1306_WriteCommand(0xD5); //--set display clock divide ratio/oscillator frequency
 108:Core/Inc/ssd1306/ssd1306.c ****     ssd1306_WriteCommand(0xF0); //--set divide ratio
 109:Core/Inc/ssd1306/ssd1306.c **** 
 110:Core/Inc/ssd1306/ssd1306.c ****     ssd1306_WriteCommand(0xD9); //--set pre-charge period
 111:Core/Inc/ssd1306/ssd1306.c ****     ssd1306_WriteCommand(0xF1); //
 112:Core/Inc/ssd1306/ssd1306.c **** 
 113:Core/Inc/ssd1306/ssd1306.c ****     ssd1306_SetContrast(0xCF);
 114:Core/Inc/ssd1306/ssd1306.c **** 
 115:Core/Inc/ssd1306/ssd1306.c ****     ssd1306_WriteCommand(0xDA); //--set com pins hardware configuration - CHECK
 116:Core/Inc/ssd1306/ssd1306.c **** #if (SSD1306_HEIGHT == 32)
 117:Core/Inc/ssd1306/ssd1306.c ****     ssd1306_WriteCommand(0x02);
 118:Core/Inc/ssd1306/ssd1306.c **** #elif (SSD1306_HEIGHT == 64)
 119:Core/Inc/ssd1306/ssd1306.c ****     ssd1306_WriteCommand(0x12);
 120:Core/Inc/ssd1306/ssd1306.c **** #elif (SSD1306_HEIGHT == 128)
 121:Core/Inc/ssd1306/ssd1306.c ****     ssd1306_WriteCommand(0x12);
 122:Core/Inc/ssd1306/ssd1306.c **** #else
 123:Core/Inc/ssd1306/ssd1306.c **** #error "Only 32, 64, or 128 lines of height are supported!"
 124:Core/Inc/ssd1306/ssd1306.c **** #endif
 125:Core/Inc/ssd1306/ssd1306.c **** 
 126:Core/Inc/ssd1306/ssd1306.c **** 
 127:Core/Inc/ssd1306/ssd1306.c ****     ssd1306_WriteCommand(0xDB); //--set vcomh
 128:Core/Inc/ssd1306/ssd1306.c ****     ssd1306_WriteCommand(0x40); //0x20,0.77xVcc
 129:Core/Inc/ssd1306/ssd1306.c **** 
 130:Core/Inc/ssd1306/ssd1306.c ****     ssd1306_WriteCommand(0x8D); //--set DC-DC enable
 131:Core/Inc/ssd1306/ssd1306.c ****     ssd1306_WriteCommand(0x14); //
 132:Core/Inc/ssd1306/ssd1306.c ****     ssd1306_SetDisplayOn(1); //--turn on SSD1306 panel
 133:Core/Inc/ssd1306/ssd1306.c **** 
 134:Core/Inc/ssd1306/ssd1306.c ****     // Clear screen
 135:Core/Inc/ssd1306/ssd1306.c ****     ssd1306_Fill(Black);
 136:Core/Inc/ssd1306/ssd1306.c ****     
 137:Core/Inc/ssd1306/ssd1306.c ****     // Flush buffer to screen
 138:Core/Inc/ssd1306/ssd1306.c ****     ssd1306_UpdateScreen();
 139:Core/Inc/ssd1306/ssd1306.c ****     
 140:Core/Inc/ssd1306/ssd1306.c ****     // Set default values for screen object
 141:Core/Inc/ssd1306/ssd1306.c ****     SSD1306.CurrentX = 0;
 142:Core/Inc/ssd1306/ssd1306.c ****     SSD1306.CurrentY = 0;
ARM GAS  C:\Users\arada\AppData\Local\Temp\cc2X3IhP.s 			page 4


 143:Core/Inc/ssd1306/ssd1306.c ****     
 144:Core/Inc/ssd1306/ssd1306.c ****     SSD1306.Initialized = 1;
 145:Core/Inc/ssd1306/ssd1306.c **** }
 146:Core/Inc/ssd1306/ssd1306.c **** 
 147:Core/Inc/ssd1306/ssd1306.c **** // Fill the whole screen with the given color
 148:Core/Inc/ssd1306/ssd1306.c **** void ssd1306_Fill(SSD1306_COLOR color) {
 149:Core/Inc/ssd1306/ssd1306.c ****     /* Set memory */
 150:Core/Inc/ssd1306/ssd1306.c ****     uint32_t i;
 151:Core/Inc/ssd1306/ssd1306.c **** 
 152:Core/Inc/ssd1306/ssd1306.c ****     for(i = 0; i < sizeof(SSD1306_Buffer); i++) {
 153:Core/Inc/ssd1306/ssd1306.c ****         SSD1306_Buffer[i] = (color == Black) ? 0x00 : 0xFF;
 154:Core/Inc/ssd1306/ssd1306.c ****     }
 155:Core/Inc/ssd1306/ssd1306.c **** }
 156:Core/Inc/ssd1306/ssd1306.c **** 
 157:Core/Inc/ssd1306/ssd1306.c **** // Write the screenbuffer with changed to the screen
 158:Core/Inc/ssd1306/ssd1306.c **** void ssd1306_UpdateScreen(void) {
 159:Core/Inc/ssd1306/ssd1306.c ****     // Write data to each page of RAM. Number of pages
 160:Core/Inc/ssd1306/ssd1306.c ****     // depends on the screen height:
 161:Core/Inc/ssd1306/ssd1306.c ****     //
 162:Core/Inc/ssd1306/ssd1306.c ****     //  * 32px   ==  4 pages
 163:Core/Inc/ssd1306/ssd1306.c ****     //  * 64px   ==  8 pages
 164:Core/Inc/ssd1306/ssd1306.c ****     //  * 128px  ==  16 pages
 165:Core/Inc/ssd1306/ssd1306.c ****     for(uint8_t i = 0; i < SSD1306_HEIGHT/8; i++) {
 166:Core/Inc/ssd1306/ssd1306.c ****         ssd1306_WriteCommand(0xB0 + i); // Set the current RAM page address.
 167:Core/Inc/ssd1306/ssd1306.c ****         ssd1306_WriteCommand(0x00 + 2);     //if sh1106 add + 2
 168:Core/Inc/ssd1306/ssd1306.c ****         ssd1306_WriteCommand(0x10);
 169:Core/Inc/ssd1306/ssd1306.c ****         ssd1306_WriteData(&SSD1306_Buffer[SSD1306_WIDTH*i],SSD1306_WIDTH);
 170:Core/Inc/ssd1306/ssd1306.c ****     }
 171:Core/Inc/ssd1306/ssd1306.c **** }
 172:Core/Inc/ssd1306/ssd1306.c **** 
 173:Core/Inc/ssd1306/ssd1306.c **** //    Draw one pixel in the screenbuffer
 174:Core/Inc/ssd1306/ssd1306.c **** //    X => X Coordinate
 175:Core/Inc/ssd1306/ssd1306.c **** //    Y => Y Coordinate
 176:Core/Inc/ssd1306/ssd1306.c **** //    color => Pixel color
 177:Core/Inc/ssd1306/ssd1306.c **** void ssd1306_DrawPixel(uint8_t x, uint8_t y, SSD1306_COLOR color) {
 178:Core/Inc/ssd1306/ssd1306.c ****     if(x >= SSD1306_WIDTH || y >= SSD1306_HEIGHT) {
 179:Core/Inc/ssd1306/ssd1306.c ****         // Don't write outside the buffer
 180:Core/Inc/ssd1306/ssd1306.c ****         return;
 181:Core/Inc/ssd1306/ssd1306.c ****     }
 182:Core/Inc/ssd1306/ssd1306.c ****     
 183:Core/Inc/ssd1306/ssd1306.c ****     // Check if pixel should be inverted
 184:Core/Inc/ssd1306/ssd1306.c ****     if(SSD1306.Inverted) {
 185:Core/Inc/ssd1306/ssd1306.c ****         color = (SSD1306_COLOR)!color;
 186:Core/Inc/ssd1306/ssd1306.c ****     }
 187:Core/Inc/ssd1306/ssd1306.c ****     
 188:Core/Inc/ssd1306/ssd1306.c ****     // Draw in the right color
 189:Core/Inc/ssd1306/ssd1306.c ****     if(color == White) {
 190:Core/Inc/ssd1306/ssd1306.c ****         SSD1306_Buffer[x + (y / 8) * SSD1306_WIDTH] |= 1 << (y % 8);
 191:Core/Inc/ssd1306/ssd1306.c ****     } else { 
 192:Core/Inc/ssd1306/ssd1306.c ****         SSD1306_Buffer[x + (y / 8) * SSD1306_WIDTH] &= ~(1 << (y % 8));
 193:Core/Inc/ssd1306/ssd1306.c ****     }
 194:Core/Inc/ssd1306/ssd1306.c **** }
 195:Core/Inc/ssd1306/ssd1306.c **** 
 196:Core/Inc/ssd1306/ssd1306.c **** // Draw 1 char to the screen buffer
 197:Core/Inc/ssd1306/ssd1306.c **** // ch       => char om weg te schrijven
 198:Core/Inc/ssd1306/ssd1306.c **** // Font     => Font waarmee we gaan schrijven
 199:Core/Inc/ssd1306/ssd1306.c **** // color    => Black or White
ARM GAS  C:\Users\arada\AppData\Local\Temp\cc2X3IhP.s 			page 5


 200:Core/Inc/ssd1306/ssd1306.c **** char ssd1306_WriteChar(char ch, FontDef Font, SSD1306_COLOR color) {
 201:Core/Inc/ssd1306/ssd1306.c ****     uint32_t i, b, j;
 202:Core/Inc/ssd1306/ssd1306.c ****     
 203:Core/Inc/ssd1306/ssd1306.c ****     // Check if character is valid
 204:Core/Inc/ssd1306/ssd1306.c ****     if (ch < 32 || ch > 126)
 205:Core/Inc/ssd1306/ssd1306.c ****         return 0;
 206:Core/Inc/ssd1306/ssd1306.c ****     
 207:Core/Inc/ssd1306/ssd1306.c ****     // Check remaining space on current line
 208:Core/Inc/ssd1306/ssd1306.c ****     if (SSD1306_WIDTH < (SSD1306.CurrentX + Font.FontWidth) ||
 209:Core/Inc/ssd1306/ssd1306.c ****         SSD1306_HEIGHT < (SSD1306.CurrentY + Font.FontHeight))
 210:Core/Inc/ssd1306/ssd1306.c ****     {
 211:Core/Inc/ssd1306/ssd1306.c ****         // Not enough space on current line
 212:Core/Inc/ssd1306/ssd1306.c ****         return 0;
 213:Core/Inc/ssd1306/ssd1306.c ****     }
 214:Core/Inc/ssd1306/ssd1306.c ****     
 215:Core/Inc/ssd1306/ssd1306.c ****     // Use the font to write
 216:Core/Inc/ssd1306/ssd1306.c ****     for(i = 0; i < Font.FontHeight; i++) {
 217:Core/Inc/ssd1306/ssd1306.c ****         b = Font.data[(ch - 32) * Font.FontHeight + i];
 218:Core/Inc/ssd1306/ssd1306.c ****         for(j = 0; j < Font.FontWidth; j++) {
 219:Core/Inc/ssd1306/ssd1306.c ****             if((b << j) & 0x8000)  {
 220:Core/Inc/ssd1306/ssd1306.c ****                 ssd1306_DrawPixel(SSD1306.CurrentX + j, (SSD1306.CurrentY + i), (SSD1306_COLOR) col
 221:Core/Inc/ssd1306/ssd1306.c ****             } else {
 222:Core/Inc/ssd1306/ssd1306.c ****                 ssd1306_DrawPixel(SSD1306.CurrentX + j, (SSD1306.CurrentY + i), (SSD1306_COLOR)!col
 223:Core/Inc/ssd1306/ssd1306.c ****             }
 224:Core/Inc/ssd1306/ssd1306.c ****         }
 225:Core/Inc/ssd1306/ssd1306.c ****     }
 226:Core/Inc/ssd1306/ssd1306.c ****     
 227:Core/Inc/ssd1306/ssd1306.c ****     // The current space is now taken
 228:Core/Inc/ssd1306/ssd1306.c ****     SSD1306.CurrentX += Font.FontWidth;
 229:Core/Inc/ssd1306/ssd1306.c ****     
 230:Core/Inc/ssd1306/ssd1306.c ****     // Return written char for validation
 231:Core/Inc/ssd1306/ssd1306.c ****     return ch;
 232:Core/Inc/ssd1306/ssd1306.c **** }
 233:Core/Inc/ssd1306/ssd1306.c **** 
 234:Core/Inc/ssd1306/ssd1306.c **** // Write full string to screenbuffer
 235:Core/Inc/ssd1306/ssd1306.c **** char ssd1306_WriteString(char* str, FontDef Font, SSD1306_COLOR color) {
 236:Core/Inc/ssd1306/ssd1306.c ****     // Write until null-byte
 237:Core/Inc/ssd1306/ssd1306.c ****     while (*str) {
 238:Core/Inc/ssd1306/ssd1306.c ****         if (ssd1306_WriteChar(*str, Font, color) != *str) {
 239:Core/Inc/ssd1306/ssd1306.c ****             // Char could not be written
 240:Core/Inc/ssd1306/ssd1306.c ****             return *str;
 241:Core/Inc/ssd1306/ssd1306.c ****         }
 242:Core/Inc/ssd1306/ssd1306.c ****         
 243:Core/Inc/ssd1306/ssd1306.c ****         // Next char
 244:Core/Inc/ssd1306/ssd1306.c ****         str++;
 245:Core/Inc/ssd1306/ssd1306.c ****     }
 246:Core/Inc/ssd1306/ssd1306.c ****     
 247:Core/Inc/ssd1306/ssd1306.c ****     // Everything ok
 248:Core/Inc/ssd1306/ssd1306.c ****     return *str;
 249:Core/Inc/ssd1306/ssd1306.c **** }
 250:Core/Inc/ssd1306/ssd1306.c **** 
 251:Core/Inc/ssd1306/ssd1306.c **** // Position the cursor
 252:Core/Inc/ssd1306/ssd1306.c **** void ssd1306_SetCursor(uint8_t x, uint8_t y) {
 253:Core/Inc/ssd1306/ssd1306.c ****     SSD1306.CurrentX = x;
 254:Core/Inc/ssd1306/ssd1306.c ****     SSD1306.CurrentY = y;
 255:Core/Inc/ssd1306/ssd1306.c **** }
 256:Core/Inc/ssd1306/ssd1306.c **** 
ARM GAS  C:\Users\arada\AppData\Local\Temp\cc2X3IhP.s 			page 6


 257:Core/Inc/ssd1306/ssd1306.c **** // Draw line by Bresenhem's algorithm
 258:Core/Inc/ssd1306/ssd1306.c **** void ssd1306_Line(uint8_t x1, uint8_t y1, uint8_t x2, uint8_t y2, SSD1306_COLOR color) {
 259:Core/Inc/ssd1306/ssd1306.c ****   int32_t deltaX = abs(x2 - x1);
 260:Core/Inc/ssd1306/ssd1306.c ****   int32_t deltaY = abs(y2 - y1);
 261:Core/Inc/ssd1306/ssd1306.c ****   int32_t signX = ((x1 < x2) ? 1 : -1);
 262:Core/Inc/ssd1306/ssd1306.c ****   int32_t signY = ((y1 < y2) ? 1 : -1);
 263:Core/Inc/ssd1306/ssd1306.c ****   int32_t error = deltaX - deltaY;
 264:Core/Inc/ssd1306/ssd1306.c ****   int32_t error2;
 265:Core/Inc/ssd1306/ssd1306.c ****     
 266:Core/Inc/ssd1306/ssd1306.c ****   ssd1306_DrawPixel(x2, y2, color);
 267:Core/Inc/ssd1306/ssd1306.c ****     while((x1 != x2) || (y1 != y2))
 268:Core/Inc/ssd1306/ssd1306.c ****     {
 269:Core/Inc/ssd1306/ssd1306.c ****     ssd1306_DrawPixel(x1, y1, color);
 270:Core/Inc/ssd1306/ssd1306.c ****     error2 = error * 2;
 271:Core/Inc/ssd1306/ssd1306.c ****     if(error2 > -deltaY)
 272:Core/Inc/ssd1306/ssd1306.c ****     {
 273:Core/Inc/ssd1306/ssd1306.c ****       error -= deltaY;
 274:Core/Inc/ssd1306/ssd1306.c ****       x1 += signX;
 275:Core/Inc/ssd1306/ssd1306.c ****     }
 276:Core/Inc/ssd1306/ssd1306.c ****     else
 277:Core/Inc/ssd1306/ssd1306.c ****     {
 278:Core/Inc/ssd1306/ssd1306.c ****     /*nothing to do*/
 279:Core/Inc/ssd1306/ssd1306.c ****     }
 280:Core/Inc/ssd1306/ssd1306.c ****         
 281:Core/Inc/ssd1306/ssd1306.c ****     if(error2 < deltaX)
 282:Core/Inc/ssd1306/ssd1306.c ****     {
 283:Core/Inc/ssd1306/ssd1306.c ****       error += deltaX;
 284:Core/Inc/ssd1306/ssd1306.c ****       y1 += signY;
 285:Core/Inc/ssd1306/ssd1306.c ****     }
 286:Core/Inc/ssd1306/ssd1306.c ****     else
 287:Core/Inc/ssd1306/ssd1306.c ****     {
 288:Core/Inc/ssd1306/ssd1306.c ****     /*nothing to do*/
 289:Core/Inc/ssd1306/ssd1306.c ****     }
 290:Core/Inc/ssd1306/ssd1306.c ****   }
 291:Core/Inc/ssd1306/ssd1306.c ****   return;
 292:Core/Inc/ssd1306/ssd1306.c **** }
 293:Core/Inc/ssd1306/ssd1306.c **** //Draw polyline
 294:Core/Inc/ssd1306/ssd1306.c **** void ssd1306_Polyline(const SSD1306_VERTEX *par_vertex, uint16_t par_size, SSD1306_COLOR color) {
 295:Core/Inc/ssd1306/ssd1306.c ****   uint16_t i;
 296:Core/Inc/ssd1306/ssd1306.c ****   if(par_vertex != 0){
 297:Core/Inc/ssd1306/ssd1306.c ****     for(i = 1; i < par_size; i++){
 298:Core/Inc/ssd1306/ssd1306.c ****       ssd1306_Line(par_vertex[i - 1].x, par_vertex[i - 1].y, par_vertex[i].x, par_vertex[i].y, colo
 299:Core/Inc/ssd1306/ssd1306.c ****     }
 300:Core/Inc/ssd1306/ssd1306.c ****   }
 301:Core/Inc/ssd1306/ssd1306.c ****   else
 302:Core/Inc/ssd1306/ssd1306.c ****   {
 303:Core/Inc/ssd1306/ssd1306.c ****     /*nothing to do*/
 304:Core/Inc/ssd1306/ssd1306.c ****   }
 305:Core/Inc/ssd1306/ssd1306.c ****   return;
 306:Core/Inc/ssd1306/ssd1306.c **** }
 307:Core/Inc/ssd1306/ssd1306.c **** /*Convert Degrees to Radians*/
 308:Core/Inc/ssd1306/ssd1306.c **** static float ssd1306_DegToRad(float par_deg) {
  31              		.loc 1 308 46 view -0
  32              		.cfi_startproc
  33              		@ args = 0, pretend = 0, frame = 0
  34              		@ frame_needed = 0, uses_anonymous_args = 0
  35              		.loc 1 308 46 is_stmt 0 view .LVU1
ARM GAS  C:\Users\arada\AppData\Local\Temp\cc2X3IhP.s 			page 7


  36 0000 08B5     		push	{r3, lr}
  37              	.LCFI0:
  38              		.cfi_def_cfa_offset 8
  39              		.cfi_offset 3, -8
  40              		.cfi_offset 14, -4
 309:Core/Inc/ssd1306/ssd1306.c ****     return par_deg * 3.14 / 180.0;
  41              		.loc 1 309 5 is_stmt 1 view .LVU2
  42              		.loc 1 309 20 is_stmt 0 view .LVU3
  43 0002 FFF7FEFF 		bl	__aeabi_f2d
  44              	.LVL1:
  45              		.loc 1 309 20 view .LVU4
  46 0006 06A3     		adr	r3, .L3
  47 0008 D3E90023 		ldrd	r2, [r3]
  48 000c FFF7FEFF 		bl	__aeabi_dmul
  49              	.LVL2:
  50              		.loc 1 309 27 view .LVU5
  51 0010 0022     		movs	r2, #0
  52 0012 054B     		ldr	r3, .L3+8
  53 0014 FFF7FEFF 		bl	__aeabi_ddiv
  54              	.LVL3:
  55 0018 FFF7FEFF 		bl	__aeabi_d2f
  56              	.LVL4:
 310:Core/Inc/ssd1306/ssd1306.c **** }
  57              		.loc 1 310 1 view .LVU6
  58 001c 08BD     		pop	{r3, pc}
  59              	.L4:
  60 001e 00BF     		.align	3
  61              	.L3:
  62 0020 1F85EB51 		.word	1374389535
  63 0024 B81E0940 		.word	1074339512
  64 0028 00806640 		.word	1080459264
  65              		.cfi_endproc
  66              	.LFE81:
  68              		.section	.text.ssd1306_NormalizeTo0_360,"ax",%progbits
  69              		.align	1
  70              		.syntax unified
  71              		.thumb
  72              		.thumb_func
  73              		.fpu softvfp
  75              	ssd1306_NormalizeTo0_360:
  76              	.LVL5:
  77              	.LFB82:
 311:Core/Inc/ssd1306/ssd1306.c **** /*Normalize degree to [0;360]*/
 312:Core/Inc/ssd1306/ssd1306.c **** static uint16_t ssd1306_NormalizeTo0_360(uint16_t par_deg) {
  78              		.loc 1 312 60 is_stmt 1 view -0
  79              		.cfi_startproc
  80              		@ args = 0, pretend = 0, frame = 0
  81              		@ frame_needed = 0, uses_anonymous_args = 0
  82              		@ link register save eliminated.
 313:Core/Inc/ssd1306/ssd1306.c ****   uint16_t loc_angle;
  83              		.loc 1 313 3 view .LVU8
 314:Core/Inc/ssd1306/ssd1306.c ****   if(par_deg <= 360)
  84              		.loc 1 314 3 view .LVU9
  85              		.loc 1 314 5 is_stmt 0 view .LVU10
  86 0000 B0F5B47F 		cmp	r0, #360
  87 0004 00D9     		bls	.L6
 315:Core/Inc/ssd1306/ssd1306.c ****   {
ARM GAS  C:\Users\arada\AppData\Local\Temp\cc2X3IhP.s 			page 8


 316:Core/Inc/ssd1306/ssd1306.c ****     loc_angle = par_deg;
 317:Core/Inc/ssd1306/ssd1306.c ****   }
 318:Core/Inc/ssd1306/ssd1306.c ****   else
 319:Core/Inc/ssd1306/ssd1306.c ****   {
 320:Core/Inc/ssd1306/ssd1306.c ****     loc_angle = par_deg % 360;
  88              		.loc 1 320 5 is_stmt 1 view .LVU11
  89              	.LVL6:
 321:Core/Inc/ssd1306/ssd1306.c ****     loc_angle = ((par_deg != 0)?par_deg:360);
  90              		.loc 1 321 5 view .LVU12
  91              		.loc 1 321 15 is_stmt 0 view .LVU13
  92 0006 00B1     		cbz	r0, .L8
  93              	.LVL7:
  94              	.L6:
 322:Core/Inc/ssd1306/ssd1306.c ****   }
 323:Core/Inc/ssd1306/ssd1306.c ****   return loc_angle;
  95              		.loc 1 323 3 is_stmt 1 view .LVU14
 324:Core/Inc/ssd1306/ssd1306.c **** }
  96              		.loc 1 324 1 is_stmt 0 view .LVU15
  97 0008 7047     		bx	lr
  98              	.LVL8:
  99              	.L8:
 321:Core/Inc/ssd1306/ssd1306.c ****     loc_angle = ((par_deg != 0)?par_deg:360);
 100              		.loc 1 321 15 view .LVU16
 101 000a 4FF4B470 		mov	r0, #360
 102              	.LVL9:
 321:Core/Inc/ssd1306/ssd1306.c ****     loc_angle = ((par_deg != 0)?par_deg:360);
 103              		.loc 1 321 15 view .LVU17
 104 000e FBE7     		b	.L6
 105              		.cfi_endproc
 106              	.LFE82:
 108              		.section	.text.ssd1306_Reset,"ax",%progbits
 109              		.align	1
 110              		.global	ssd1306_Reset
 111              		.syntax unified
 112              		.thumb
 113              		.thumb_func
 114              		.fpu softvfp
 116              	ssd1306_Reset:
 117              	.LFB68:
   8:Core/Inc/ssd1306/ssd1306.c ****     /* for I2C - do nothing */
 118              		.loc 1 8 26 is_stmt 1 view -0
 119              		.cfi_startproc
 120              		@ args = 0, pretend = 0, frame = 0
 121              		@ frame_needed = 0, uses_anonymous_args = 0
 122 0000 10B5     		push	{r4, lr}
 123              	.LCFI1:
 124              		.cfi_def_cfa_offset 8
 125              		.cfi_offset 4, -8
 126              		.cfi_offset 14, -4
  10:Core/Inc/ssd1306/ssd1306.c ****     HAL_Delay(10);
 127              		.loc 1 10 5 view .LVU19
 128 0002 094C     		ldr	r4, .L11
 129 0004 0022     		movs	r2, #0
 130 0006 0221     		movs	r1, #2
 131 0008 2046     		mov	r0, r4
 132 000a FFF7FEFF 		bl	HAL_GPIO_WritePin
 133              	.LVL10:
ARM GAS  C:\Users\arada\AppData\Local\Temp\cc2X3IhP.s 			page 9


  11:Core/Inc/ssd1306/ssd1306.c ****     HAL_GPIO_WritePin(GPIOB, GPIO_PIN_1, GPIO_PIN_SET);
 134              		.loc 1 11 5 view .LVU20
 135 000e 0A20     		movs	r0, #10
 136 0010 FFF7FEFF 		bl	HAL_Delay
 137              	.LVL11:
  12:Core/Inc/ssd1306/ssd1306.c ****     HAL_Delay(10);
 138              		.loc 1 12 5 view .LVU21
 139 0014 0122     		movs	r2, #1
 140 0016 0221     		movs	r1, #2
 141 0018 2046     		mov	r0, r4
 142 001a FFF7FEFF 		bl	HAL_GPIO_WritePin
 143              	.LVL12:
  13:Core/Inc/ssd1306/ssd1306.c **** }
 144              		.loc 1 13 5 view .LVU22
 145 001e 0A20     		movs	r0, #10
 146 0020 FFF7FEFF 		bl	HAL_Delay
 147              	.LVL13:
  14:Core/Inc/ssd1306/ssd1306.c **** 
 148              		.loc 1 14 1 is_stmt 0 view .LVU23
 149 0024 10BD     		pop	{r4, pc}
 150              	.L12:
 151 0026 00BF     		.align	2
 152              	.L11:
 153 0028 000C0140 		.word	1073810432
 154              		.cfi_endproc
 155              	.LFE68:
 157              		.section	.text.ssd1306_WriteCommand,"ax",%progbits
 158              		.align	1
 159              		.global	ssd1306_WriteCommand
 160              		.syntax unified
 161              		.thumb
 162              		.thumb_func
 163              		.fpu softvfp
 165              	ssd1306_WriteCommand:
 166              	.LVL14:
 167              	.LFB69:
  17:Core/Inc/ssd1306/ssd1306.c ****     //HAL_I2C_Mem_Write(&SSD1306_I2C_PORT, SSD1306_I2C_ADDR, 0x00, 1, &byte, 1, HAL_MAX_DELAY);
 168              		.loc 1 17 41 is_stmt 1 view -0
 169              		.cfi_startproc
 170              		@ args = 0, pretend = 0, frame = 0
 171              		@ frame_needed = 0, uses_anonymous_args = 0
  17:Core/Inc/ssd1306/ssd1306.c ****     //HAL_I2C_Mem_Write(&SSD1306_I2C_PORT, SSD1306_I2C_ADDR, 0x00, 1, &byte, 1, HAL_MAX_DELAY);
 172              		.loc 1 17 41 is_stmt 0 view .LVU25
 173 0000 08B5     		push	{r3, lr}
 174              	.LCFI2:
 175              		.cfi_def_cfa_offset 8
 176              		.cfi_offset 3, -8
 177              		.cfi_offset 14, -4
 178 0002 0346     		mov	r3, r0
  19:Core/Inc/ssd1306/ssd1306.c **** }
 179              		.loc 1 19 5 is_stmt 1 view .LVU26
 180 0004 0022     		movs	r2, #0
 181 0006 7821     		movs	r1, #120
 182 0008 0120     		movs	r0, #1
 183              	.LVL15:
  19:Core/Inc/ssd1306/ssd1306.c **** }
 184              		.loc 1 19 5 is_stmt 0 view .LVU27
ARM GAS  C:\Users\arada\AppData\Local\Temp\cc2X3IhP.s 			page 10


 185 000a FFF7FEFF 		bl	SW_I2C_WriteControl_8Bit
 186              	.LVL16:
  20:Core/Inc/ssd1306/ssd1306.c **** 
 187              		.loc 1 20 1 view .LVU28
 188 000e 08BD     		pop	{r3, pc}
 189              		.cfi_endproc
 190              	.LFE69:
 192              		.section	.rodata.ssd1306_WriteData.str1.4,"aMS",%progbits,1
 193              		.align	2
 194              	.LC0:
 195 0000 25690D0A 		.ascii	"%i\015\012\000"
 195      00
 196              		.section	.text.ssd1306_WriteData,"ax",%progbits
 197              		.align	1
 198              		.global	ssd1306_WriteData
 199              		.syntax unified
 200              		.thumb
 201              		.thumb_func
 202              		.fpu softvfp
 204              	ssd1306_WriteData:
 205              	.LVL17:
 206              	.LFB70:
  23:Core/Inc/ssd1306/ssd1306.c ****     //HAL_I2C_Mem_Write(&SSD1306_I2C_PORT, SSD1306_I2C_ADDR, 0x40, 1, buffer, buff_size, HAL_MAX_DE
 207              		.loc 1 23 59 is_stmt 1 view -0
 208              		.cfi_startproc
 209              		@ args = 0, pretend = 0, frame = 0
 210              		@ frame_needed = 0, uses_anonymous_args = 0
  23:Core/Inc/ssd1306/ssd1306.c ****     //HAL_I2C_Mem_Write(&SSD1306_I2C_PORT, SSD1306_I2C_ADDR, 0x40, 1, buffer, buff_size, HAL_MAX_DE
 211              		.loc 1 23 59 is_stmt 0 view .LVU30
 212 0000 00B5     		push	{lr}
 213              	.LCFI3:
 214              		.cfi_def_cfa_offset 4
 215              		.cfi_offset 14, -4
 216 0002 83B0     		sub	sp, sp, #12
 217              	.LCFI4:
 218              		.cfi_def_cfa_offset 16
  25:Core/Inc/ssd1306/ssd1306.c **** }
 219              		.loc 1 25 5 is_stmt 1 view .LVU31
  25:Core/Inc/ssd1306/ssd1306.c **** }
 220              		.loc 1 25 23 is_stmt 0 view .LVU32
 221 0004 0090     		str	r0, [sp]
 222 0006 CBB2     		uxtb	r3, r1
 223 0008 4022     		movs	r2, #64
 224 000a 7821     		movs	r1, #120
 225              	.LVL18:
  25:Core/Inc/ssd1306/ssd1306.c **** }
 226              		.loc 1 25 23 view .LVU33
 227 000c 0120     		movs	r0, #1
 228              	.LVL19:
  25:Core/Inc/ssd1306/ssd1306.c **** }
 229              		.loc 1 25 23 view .LVU34
 230 000e FFF7FEFF 		bl	SW_I2C_WritenControl_8Bit
 231              	.LVL20:
  25:Core/Inc/ssd1306/ssd1306.c **** }
 232              		.loc 1 25 23 view .LVU35
 233 0012 0146     		mov	r1, r0
  25:Core/Inc/ssd1306/ssd1306.c **** }
ARM GAS  C:\Users\arada\AppData\Local\Temp\cc2X3IhP.s 			page 11


 234              		.loc 1 25 5 view .LVU36
 235 0014 0248     		ldr	r0, .L17
 236 0016 FFF7FEFF 		bl	printf
 237              	.LVL21:
  26:Core/Inc/ssd1306/ssd1306.c **** 
 238              		.loc 1 26 1 view .LVU37
 239 001a 03B0     		add	sp, sp, #12
 240              	.LCFI5:
 241              		.cfi_def_cfa_offset 4
 242              		@ sp needed
 243 001c 5DF804FB 		ldr	pc, [sp], #4
 244              	.L18:
 245              		.align	2
 246              	.L17:
 247 0020 00000000 		.word	.LC0
 248              		.cfi_endproc
 249              	.LFE70:
 251              		.section	.text.ssd1306_FillBuffer,"ax",%progbits
 252              		.align	1
 253              		.global	ssd1306_FillBuffer
 254              		.syntax unified
 255              		.thumb
 256              		.thumb_func
 257              		.fpu softvfp
 259              	ssd1306_FillBuffer:
 260              	.LVL22:
 261              	.LFB71:
  35:Core/Inc/ssd1306/ssd1306.c ****     SSD1306_Error_t ret = SSD1306_ERR;
 262              		.loc 1 35 64 is_stmt 1 view -0
 263              		.cfi_startproc
 264              		@ args = 0, pretend = 0, frame = 0
 265              		@ frame_needed = 0, uses_anonymous_args = 0
  36:Core/Inc/ssd1306/ssd1306.c ****     if (len <= SSD1306_BUFFER_SIZE) {
 266              		.loc 1 36 5 view .LVU39
  37:Core/Inc/ssd1306/ssd1306.c ****         memcpy(SSD1306_Buffer,buf,len);
 267              		.loc 1 37 5 view .LVU40
  37:Core/Inc/ssd1306/ssd1306.c ****         memcpy(SSD1306_Buffer,buf,len);
 268              		.loc 1 37 8 is_stmt 0 view .LVU41
 269 0000 B1F5806F 		cmp	r1, #1024
 270 0004 01D9     		bls	.L26
  36:Core/Inc/ssd1306/ssd1306.c ****     if (len <= SSD1306_BUFFER_SIZE) {
 271              		.loc 1 36 21 view .LVU42
 272 0006 0120     		movs	r0, #1
 273              	.LVL23:
  41:Core/Inc/ssd1306/ssd1306.c **** }
 274              		.loc 1 41 5 is_stmt 1 view .LVU43
  42:Core/Inc/ssd1306/ssd1306.c **** 
 275              		.loc 1 42 1 is_stmt 0 view .LVU44
 276 0008 7047     		bx	lr
 277              	.LVL24:
 278              	.L26:
  35:Core/Inc/ssd1306/ssd1306.c ****     SSD1306_Error_t ret = SSD1306_ERR;
 279              		.loc 1 35 64 view .LVU45
 280 000a 08B5     		push	{r3, lr}
 281              	.LCFI6:
 282              		.cfi_def_cfa_offset 8
 283              		.cfi_offset 3, -8
ARM GAS  C:\Users\arada\AppData\Local\Temp\cc2X3IhP.s 			page 12


 284              		.cfi_offset 14, -4
  38:Core/Inc/ssd1306/ssd1306.c ****         ret = SSD1306_OK;
 285              		.loc 1 38 9 is_stmt 1 view .LVU46
 286 000c 0A46     		mov	r2, r1
 287 000e 0146     		mov	r1, r0
 288              	.LVL25:
  38:Core/Inc/ssd1306/ssd1306.c ****         ret = SSD1306_OK;
 289              		.loc 1 38 9 is_stmt 0 view .LVU47
 290 0010 0248     		ldr	r0, .L27
 291              	.LVL26:
  38:Core/Inc/ssd1306/ssd1306.c ****         ret = SSD1306_OK;
 292              		.loc 1 38 9 view .LVU48
 293 0012 FFF7FEFF 		bl	memcpy
 294              	.LVL27:
  39:Core/Inc/ssd1306/ssd1306.c ****     }
 295              		.loc 1 39 9 is_stmt 1 view .LVU49
  39:Core/Inc/ssd1306/ssd1306.c ****     }
 296              		.loc 1 39 13 is_stmt 0 view .LVU50
 297 0016 0020     		movs	r0, #0
 298              	.LVL28:
  41:Core/Inc/ssd1306/ssd1306.c **** }
 299              		.loc 1 41 5 is_stmt 1 view .LVU51
  42:Core/Inc/ssd1306/ssd1306.c **** 
 300              		.loc 1 42 1 is_stmt 0 view .LVU52
 301 0018 08BD     		pop	{r3, pc}
 302              	.L28:
 303 001a 00BF     		.align	2
 304              	.L27:
 305 001c 00000000 		.word	.LANCHOR0
 306              		.cfi_endproc
 307              	.LFE71:
 309              		.section	.text.ssd1306_Fill,"ax",%progbits
 310              		.align	1
 311              		.global	ssd1306_Fill
 312              		.syntax unified
 313              		.thumb
 314              		.thumb_func
 315              		.fpu softvfp
 317              	ssd1306_Fill:
 318              	.LVL29:
 319              	.LFB73:
 148:Core/Inc/ssd1306/ssd1306.c ****     /* Set memory */
 320              		.loc 1 148 40 is_stmt 1 view -0
 321              		.cfi_startproc
 322              		@ args = 0, pretend = 0, frame = 0
 323              		@ frame_needed = 0, uses_anonymous_args = 0
 324              		@ link register save eliminated.
 150:Core/Inc/ssd1306/ssd1306.c **** 
 325              		.loc 1 150 5 view .LVU54
 152:Core/Inc/ssd1306/ssd1306.c ****         SSD1306_Buffer[i] = (color == Black) ? 0x00 : 0xFF;
 326              		.loc 1 152 5 view .LVU55
 152:Core/Inc/ssd1306/ssd1306.c ****         SSD1306_Buffer[i] = (color == Black) ? 0x00 : 0xFF;
 327              		.loc 1 152 11 is_stmt 0 view .LVU56
 328 0000 0023     		movs	r3, #0
 152:Core/Inc/ssd1306/ssd1306.c ****         SSD1306_Buffer[i] = (color == Black) ? 0x00 : 0xFF;
 329              		.loc 1 152 5 view .LVU57
 330 0002 03E0     		b	.L30
ARM GAS  C:\Users\arada\AppData\Local\Temp\cc2X3IhP.s 			page 13


 331              	.LVL30:
 332              	.L33:
 153:Core/Inc/ssd1306/ssd1306.c ****     }
 333              		.loc 1 153 27 view .LVU58
 334 0004 FF21     		movs	r1, #255
 335              	.L31:
 153:Core/Inc/ssd1306/ssd1306.c ****     }
 336              		.loc 1 153 27 discriminator 4 view .LVU59
 337 0006 054A     		ldr	r2, .L35
 338 0008 D154     		strb	r1, [r2, r3]
 152:Core/Inc/ssd1306/ssd1306.c ****         SSD1306_Buffer[i] = (color == Black) ? 0x00 : 0xFF;
 339              		.loc 1 152 44 is_stmt 1 discriminator 4 view .LVU60
 152:Core/Inc/ssd1306/ssd1306.c ****         SSD1306_Buffer[i] = (color == Black) ? 0x00 : 0xFF;
 340              		.loc 1 152 45 is_stmt 0 discriminator 4 view .LVU61
 341 000a 0133     		adds	r3, r3, #1
 342              	.LVL31:
 343              	.L30:
 152:Core/Inc/ssd1306/ssd1306.c ****         SSD1306_Buffer[i] = (color == Black) ? 0x00 : 0xFF;
 344              		.loc 1 152 16 is_stmt 1 discriminator 2 view .LVU62
 152:Core/Inc/ssd1306/ssd1306.c ****         SSD1306_Buffer[i] = (color == Black) ? 0x00 : 0xFF;
 345              		.loc 1 152 5 is_stmt 0 discriminator 2 view .LVU63
 346 000c B3F5806F 		cmp	r3, #1024
 347 0010 03D2     		bcs	.L34
 153:Core/Inc/ssd1306/ssd1306.c ****     }
 348              		.loc 1 153 9 is_stmt 1 view .LVU64
 153:Core/Inc/ssd1306/ssd1306.c ****     }
 349              		.loc 1 153 27 is_stmt 0 view .LVU65
 350 0012 0028     		cmp	r0, #0
 351 0014 F6D1     		bne	.L33
 352 0016 0146     		mov	r1, r0
 353 0018 F5E7     		b	.L31
 354              	.L34:
 155:Core/Inc/ssd1306/ssd1306.c **** 
 355              		.loc 1 155 1 view .LVU66
 356 001a 7047     		bx	lr
 357              	.L36:
 358              		.align	2
 359              	.L35:
 360 001c 00000000 		.word	.LANCHOR0
 361              		.cfi_endproc
 362              	.LFE73:
 364              		.section	.text.ssd1306_UpdateScreen,"ax",%progbits
 365              		.align	1
 366              		.global	ssd1306_UpdateScreen
 367              		.syntax unified
 368              		.thumb
 369              		.thumb_func
 370              		.fpu softvfp
 372              	ssd1306_UpdateScreen:
 373              	.LFB74:
 158:Core/Inc/ssd1306/ssd1306.c ****     // Write data to each page of RAM. Number of pages
 374              		.loc 1 158 33 is_stmt 1 view -0
 375              		.cfi_startproc
 376              		@ args = 0, pretend = 0, frame = 0
 377              		@ frame_needed = 0, uses_anonymous_args = 0
 378 0000 10B5     		push	{r4, lr}
 379              	.LCFI7:
ARM GAS  C:\Users\arada\AppData\Local\Temp\cc2X3IhP.s 			page 14


 380              		.cfi_def_cfa_offset 8
 381              		.cfi_offset 4, -8
 382              		.cfi_offset 14, -4
 165:Core/Inc/ssd1306/ssd1306.c ****         ssd1306_WriteCommand(0xB0 + i); // Set the current RAM page address.
 383              		.loc 1 165 5 view .LVU68
 384              	.LBB2:
 165:Core/Inc/ssd1306/ssd1306.c ****         ssd1306_WriteCommand(0xB0 + i); // Set the current RAM page address.
 385              		.loc 1 165 9 view .LVU69
 386              	.LVL32:
 165:Core/Inc/ssd1306/ssd1306.c ****         ssd1306_WriteCommand(0xB0 + i); // Set the current RAM page address.
 387              		.loc 1 165 17 is_stmt 0 view .LVU70
 388 0002 0024     		movs	r4, #0
 165:Core/Inc/ssd1306/ssd1306.c ****         ssd1306_WriteCommand(0xB0 + i); // Set the current RAM page address.
 389              		.loc 1 165 5 view .LVU71
 390 0004 12E0     		b	.L38
 391              	.LVL33:
 392              	.L39:
 166:Core/Inc/ssd1306/ssd1306.c ****         ssd1306_WriteCommand(0x00 + 2);     //if sh1106 add + 2
 393              		.loc 1 166 9 is_stmt 1 discriminator 3 view .LVU72
 394 0006 A4F15000 		sub	r0, r4, #80
 395 000a C0B2     		uxtb	r0, r0
 396 000c FFF7FEFF 		bl	ssd1306_WriteCommand
 397              	.LVL34:
 167:Core/Inc/ssd1306/ssd1306.c ****         ssd1306_WriteCommand(0x10);
 398              		.loc 1 167 9 discriminator 3 view .LVU73
 399 0010 0220     		movs	r0, #2
 400 0012 FFF7FEFF 		bl	ssd1306_WriteCommand
 401              	.LVL35:
 168:Core/Inc/ssd1306/ssd1306.c ****         ssd1306_WriteData(&SSD1306_Buffer[SSD1306_WIDTH*i],SSD1306_WIDTH);
 402              		.loc 1 168 9 discriminator 3 view .LVU74
 403 0016 1020     		movs	r0, #16
 404 0018 FFF7FEFF 		bl	ssd1306_WriteCommand
 405              	.LVL36:
 169:Core/Inc/ssd1306/ssd1306.c ****     }
 406              		.loc 1 169 9 discriminator 3 view .LVU75
 407 001c 8021     		movs	r1, #128
 408 001e 0548     		ldr	r0, .L41
 409 0020 00EBC410 		add	r0, r0, r4, lsl #7
 410 0024 FFF7FEFF 		bl	ssd1306_WriteData
 411              	.LVL37:
 165:Core/Inc/ssd1306/ssd1306.c ****         ssd1306_WriteCommand(0xB0 + i); // Set the current RAM page address.
 412              		.loc 1 165 46 discriminator 3 view .LVU76
 165:Core/Inc/ssd1306/ssd1306.c ****         ssd1306_WriteCommand(0xB0 + i); // Set the current RAM page address.
 413              		.loc 1 165 47 is_stmt 0 discriminator 3 view .LVU77
 414 0028 0134     		adds	r4, r4, #1
 415              	.LVL38:
 165:Core/Inc/ssd1306/ssd1306.c ****         ssd1306_WriteCommand(0xB0 + i); // Set the current RAM page address.
 416              		.loc 1 165 47 discriminator 3 view .LVU78
 417 002a E4B2     		uxtb	r4, r4
 418              	.LVL39:
 419              	.L38:
 165:Core/Inc/ssd1306/ssd1306.c ****         ssd1306_WriteCommand(0xB0 + i); // Set the current RAM page address.
 420              		.loc 1 165 24 is_stmt 1 discriminator 1 view .LVU79
 165:Core/Inc/ssd1306/ssd1306.c ****         ssd1306_WriteCommand(0xB0 + i); // Set the current RAM page address.
 421              		.loc 1 165 5 is_stmt 0 discriminator 1 view .LVU80
 422 002c 072C     		cmp	r4, #7
 423 002e EAD9     		bls	.L39
ARM GAS  C:\Users\arada\AppData\Local\Temp\cc2X3IhP.s 			page 15


 424              	.LBE2:
 171:Core/Inc/ssd1306/ssd1306.c **** 
 425              		.loc 1 171 1 view .LVU81
 426 0030 10BD     		pop	{r4, pc}
 427              	.LVL40:
 428              	.L42:
 171:Core/Inc/ssd1306/ssd1306.c **** 
 429              		.loc 1 171 1 view .LVU82
 430 0032 00BF     		.align	2
 431              	.L41:
 432 0034 00000000 		.word	.LANCHOR0
 433              		.cfi_endproc
 434              	.LFE74:
 436              		.section	.text.ssd1306_DrawPixel,"ax",%progbits
 437              		.align	1
 438              		.global	ssd1306_DrawPixel
 439              		.syntax unified
 440              		.thumb
 441              		.thumb_func
 442              		.fpu softvfp
 444              	ssd1306_DrawPixel:
 445              	.LVL41:
 446              	.LFB75:
 177:Core/Inc/ssd1306/ssd1306.c ****     if(x >= SSD1306_WIDTH || y >= SSD1306_HEIGHT) {
 447              		.loc 1 177 67 is_stmt 1 view -0
 448              		.cfi_startproc
 449              		@ args = 0, pretend = 0, frame = 0
 450              		@ frame_needed = 0, uses_anonymous_args = 0
 451              		@ link register save eliminated.
 178:Core/Inc/ssd1306/ssd1306.c ****         // Don't write outside the buffer
 452              		.loc 1 178 5 view .LVU84
 178:Core/Inc/ssd1306/ssd1306.c ****         // Don't write outside the buffer
 453              		.loc 1 178 7 is_stmt 0 view .LVU85
 454 0000 10F0800F 		tst	r0, #128
 455 0004 15D1     		bne	.L43
 178:Core/Inc/ssd1306/ssd1306.c ****         // Don't write outside the buffer
 456              		.loc 1 178 27 discriminator 1 view .LVU86
 457 0006 3F29     		cmp	r1, #63
 458 0008 13D8     		bhi	.L43
 184:Core/Inc/ssd1306/ssd1306.c ****         color = (SSD1306_COLOR)!color;
 459              		.loc 1 184 5 is_stmt 1 view .LVU87
 184:Core/Inc/ssd1306/ssd1306.c ****         color = (SSD1306_COLOR)!color;
 460              		.loc 1 184 15 is_stmt 0 view .LVU88
 461 000a 104B     		ldr	r3, .L48
 462 000c 1B79     		ldrb	r3, [r3, #4]	@ zero_extendqisi2
 184:Core/Inc/ssd1306/ssd1306.c ****         color = (SSD1306_COLOR)!color;
 463              		.loc 1 184 7 view .LVU89
 464 000e 13B1     		cbz	r3, .L45
 185:Core/Inc/ssd1306/ssd1306.c ****     }
 465              		.loc 1 185 9 is_stmt 1 view .LVU90
 185:Core/Inc/ssd1306/ssd1306.c ****     }
 466              		.loc 1 185 17 is_stmt 0 view .LVU91
 467 0010 B2FA82F2 		clz	r2, r2
 468              	.LVL42:
 185:Core/Inc/ssd1306/ssd1306.c ****     }
 469              		.loc 1 185 17 view .LVU92
 470 0014 5209     		lsrs	r2, r2, #5
ARM GAS  C:\Users\arada\AppData\Local\Temp\cc2X3IhP.s 			page 16


 471              	.LVL43:
 472              	.L45:
 189:Core/Inc/ssd1306/ssd1306.c ****         SSD1306_Buffer[x + (y / 8) * SSD1306_WIDTH] |= 1 << (y % 8);
 473              		.loc 1 189 5 is_stmt 1 view .LVU93
 189:Core/Inc/ssd1306/ssd1306.c ****         SSD1306_Buffer[x + (y / 8) * SSD1306_WIDTH] |= 1 << (y % 8);
 474              		.loc 1 189 7 is_stmt 0 view .LVU94
 475 0016 012A     		cmp	r2, #1
 476 0018 0CD0     		beq	.L47
 192:Core/Inc/ssd1306/ssd1306.c ****     }
 477              		.loc 1 192 9 is_stmt 1 view .LVU95
 192:Core/Inc/ssd1306/ssd1306.c ****     }
 478              		.loc 1 192 53 is_stmt 0 view .LVU96
 479 001a CB08     		lsrs	r3, r1, #3
 480 001c 00EBC310 		add	r0, r0, r3, lsl #7
 481              	.LVL44:
 192:Core/Inc/ssd1306/ssd1306.c ****     }
 482              		.loc 1 192 66 view .LVU97
 483 0020 01F00701 		and	r1, r1, #7
 484              	.LVL45:
 192:Core/Inc/ssd1306/ssd1306.c ****     }
 485              		.loc 1 192 60 view .LVU98
 486 0024 0123     		movs	r3, #1
 487 0026 8B40     		lsls	r3, r3, r1
 192:Core/Inc/ssd1306/ssd1306.c ****     }
 488              		.loc 1 192 53 view .LVU99
 489 0028 094A     		ldr	r2, .L48+4
 490              	.LVL46:
 192:Core/Inc/ssd1306/ssd1306.c ****     }
 491              		.loc 1 192 53 view .LVU100
 492 002a 115C     		ldrb	r1, [r2, r0]	@ zero_extendqisi2
 493 002c 21EA0301 		bic	r1, r1, r3
 494 0030 1154     		strb	r1, [r2, r0]
 495              	.L43:
 194:Core/Inc/ssd1306/ssd1306.c **** 
 496              		.loc 1 194 1 view .LVU101
 497 0032 7047     		bx	lr
 498              	.LVL47:
 499              	.L47:
 190:Core/Inc/ssd1306/ssd1306.c ****     } else { 
 500              		.loc 1 190 9 is_stmt 1 view .LVU102
 190:Core/Inc/ssd1306/ssd1306.c ****     } else { 
 501              		.loc 1 190 53 is_stmt 0 view .LVU103
 502 0034 CB08     		lsrs	r3, r1, #3
 503 0036 00EBC310 		add	r0, r0, r3, lsl #7
 504              	.LVL48:
 190:Core/Inc/ssd1306/ssd1306.c ****     } else { 
 505              		.loc 1 190 64 view .LVU104
 506 003a 01F00701 		and	r1, r1, #7
 507              	.LVL49:
 190:Core/Inc/ssd1306/ssd1306.c ****     } else { 
 508              		.loc 1 190 58 view .LVU105
 509 003e 0123     		movs	r3, #1
 510 0040 8B40     		lsls	r3, r3, r1
 190:Core/Inc/ssd1306/ssd1306.c ****     } else { 
 511              		.loc 1 190 53 view .LVU106
 512 0042 034A     		ldr	r2, .L48+4
 513              	.LVL50:
ARM GAS  C:\Users\arada\AppData\Local\Temp\cc2X3IhP.s 			page 17


 190:Core/Inc/ssd1306/ssd1306.c ****     } else { 
 514              		.loc 1 190 53 view .LVU107
 515 0044 115C     		ldrb	r1, [r2, r0]	@ zero_extendqisi2
 516 0046 1943     		orrs	r1, r1, r3
 517 0048 1154     		strb	r1, [r2, r0]
 518 004a 7047     		bx	lr
 519              	.L49:
 520              		.align	2
 521              	.L48:
 522 004c 00000000 		.word	.LANCHOR1
 523 0050 00000000 		.word	.LANCHOR0
 524              		.cfi_endproc
 525              	.LFE75:
 527              		.section	.text.ssd1306_WriteChar,"ax",%progbits
 528              		.align	1
 529              		.global	ssd1306_WriteChar
 530              		.syntax unified
 531              		.thumb
 532              		.thumb_func
 533              		.fpu softvfp
 535              	ssd1306_WriteChar:
 536              	.LVL51:
 537              	.LFB76:
 200:Core/Inc/ssd1306/ssd1306.c ****     uint32_t i, b, j;
 538              		.loc 1 200 68 is_stmt 1 view -0
 539              		.cfi_startproc
 540              		@ args = 0, pretend = 0, frame = 8
 541              		@ frame_needed = 0, uses_anonymous_args = 0
 200:Core/Inc/ssd1306/ssd1306.c ****     uint32_t i, b, j;
 542              		.loc 1 200 68 is_stmt 0 view .LVU109
 543 0000 2DE9F04F 		push	{r4, r5, r6, r7, r8, r9, r10, fp, lr}
 544              	.LCFI8:
 545              		.cfi_def_cfa_offset 36
 546              		.cfi_offset 4, -36
 547              		.cfi_offset 5, -32
 548              		.cfi_offset 6, -28
 549              		.cfi_offset 7, -24
 550              		.cfi_offset 8, -20
 551              		.cfi_offset 9, -16
 552              		.cfi_offset 10, -12
 553              		.cfi_offset 11, -8
 554              		.cfi_offset 14, -4
 555 0004 83B0     		sub	sp, sp, #12
 556              	.LCFI9:
 557              		.cfi_def_cfa_offset 48
 558 0006 8146     		mov	r9, r0
 559 0008 02A8     		add	r0, sp, #8
 560              	.LVL52:
 200:Core/Inc/ssd1306/ssd1306.c ****     uint32_t i, b, j;
 561              		.loc 1 200 68 view .LVU110
 562 000a 00E90600 		stmdb	r0, {r1, r2}
 563 000e 1F46     		mov	r7, r3
 201:Core/Inc/ssd1306/ssd1306.c ****     
 564              		.loc 1 201 5 is_stmt 1 view .LVU111
 204:Core/Inc/ssd1306/ssd1306.c ****         return 0;
 565              		.loc 1 204 5 view .LVU112
 204:Core/Inc/ssd1306/ssd1306.c ****         return 0;
ARM GAS  C:\Users\arada\AppData\Local\Temp\cc2X3IhP.s 			page 18


 566              		.loc 1 204 17 is_stmt 0 view .LVU113
 567 0010 A9F12003 		sub	r3, r9, #32
 568              	.LVL53:
 204:Core/Inc/ssd1306/ssd1306.c ****         return 0;
 569              		.loc 1 204 17 view .LVU114
 570 0014 DBB2     		uxtb	r3, r3
 204:Core/Inc/ssd1306/ssd1306.c ****         return 0;
 571              		.loc 1 204 8 view .LVU115
 572 0016 5E2B     		cmp	r3, #94
 573 0018 41D8     		bhi	.L58
 208:Core/Inc/ssd1306/ssd1306.c ****         SSD1306_HEIGHT < (SSD1306.CurrentY + Font.FontHeight))
 574              		.loc 1 208 5 is_stmt 1 view .LVU116
 208:Core/Inc/ssd1306/ssd1306.c ****         SSD1306_HEIGHT < (SSD1306.CurrentY + Font.FontHeight))
 575              		.loc 1 208 33 is_stmt 0 view .LVU117
 576 001a 254B     		ldr	r3, .L64
 577 001c 1B88     		ldrh	r3, [r3]
 208:Core/Inc/ssd1306/ssd1306.c ****         SSD1306_HEIGHT < (SSD1306.CurrentY + Font.FontHeight))
 578              		.loc 1 208 49 view .LVU118
 579 001e 9DF80060 		ldrb	r6, [sp]	@ zero_extendqisi2
 208:Core/Inc/ssd1306/ssd1306.c ****         SSD1306_HEIGHT < (SSD1306.CurrentY + Font.FontHeight))
 580              		.loc 1 208 43 view .LVU119
 581 0022 3344     		add	r3, r3, r6
 208:Core/Inc/ssd1306/ssd1306.c ****         SSD1306_HEIGHT < (SSD1306.CurrentY + Font.FontHeight))
 582              		.loc 1 208 8 view .LVU120
 583 0024 802B     		cmp	r3, #128
 584 0026 3EDC     		bgt	.L59
 209:Core/Inc/ssd1306/ssd1306.c ****     {
 585              		.loc 1 209 34 discriminator 1 view .LVU121
 586 0028 214B     		ldr	r3, .L64
 587 002a 5B88     		ldrh	r3, [r3, #2]
 209:Core/Inc/ssd1306/ssd1306.c ****     {
 588              		.loc 1 209 50 discriminator 1 view .LVU122
 589 002c 9DF801A0 		ldrb	r10, [sp, #1]	@ zero_extendqisi2
 590 0030 D346     		mov	fp, r10
 209:Core/Inc/ssd1306/ssd1306.c ****     {
 591              		.loc 1 209 44 discriminator 1 view .LVU123
 592 0032 5344     		add	r3, r3, r10
 208:Core/Inc/ssd1306/ssd1306.c ****         SSD1306_HEIGHT < (SSD1306.CurrentY + Font.FontHeight))
 593              		.loc 1 208 61 discriminator 1 view .LVU124
 594 0034 402B     		cmp	r3, #64
 595 0036 38DC     		bgt	.L60
 216:Core/Inc/ssd1306/ssd1306.c ****         b = Font.data[(ch - 32) * Font.FontHeight + i];
 596              		.loc 1 216 11 view .LVU125
 597 0038 0025     		movs	r5, #0
 598 003a 1FE0     		b	.L52
 599              	.LVL54:
 600              	.L54:
 222:Core/Inc/ssd1306/ssd1306.c ****             }
 601              		.loc 1 222 17 is_stmt 1 view .LVU126
 222:Core/Inc/ssd1306/ssd1306.c ****             }
 602              		.loc 1 222 42 is_stmt 0 view .LVU127
 603 003c 1C4B     		ldr	r3, .L64
 604 003e 1888     		ldrh	r0, [r3]
 222:Core/Inc/ssd1306/ssd1306.c ****             }
 605              		.loc 1 222 65 view .LVU128
 606 0040 5988     		ldrh	r1, [r3, #2]
 222:Core/Inc/ssd1306/ssd1306.c ****             }
ARM GAS  C:\Users\arada\AppData\Local\Temp\cc2X3IhP.s 			page 19


 607              		.loc 1 222 17 view .LVU129
 608 0042 2944     		add	r1, r1, r5
 609 0044 2044     		add	r0, r0, r4
 610 0046 B7FA87F2 		clz	r2, r7
 611 004a 5209     		lsrs	r2, r2, #5
 612 004c C9B2     		uxtb	r1, r1
 613 004e C0B2     		uxtb	r0, r0
 614 0050 FFF7FEFF 		bl	ssd1306_DrawPixel
 615              	.LVL55:
 616              	.L55:
 218:Core/Inc/ssd1306/ssd1306.c ****             if((b << j) & 0x8000)  {
 617              		.loc 1 218 40 is_stmt 1 discriminator 2 view .LVU130
 218:Core/Inc/ssd1306/ssd1306.c ****             if((b << j) & 0x8000)  {
 618              		.loc 1 218 41 is_stmt 0 discriminator 2 view .LVU131
 619 0054 0134     		adds	r4, r4, #1
 620              	.LVL56:
 621              	.L53:
 218:Core/Inc/ssd1306/ssd1306.c ****             if((b << j) & 0x8000)  {
 622              		.loc 1 218 20 is_stmt 1 discriminator 1 view .LVU132
 218:Core/Inc/ssd1306/ssd1306.c ****             if((b << j) & 0x8000)  {
 623              		.loc 1 218 9 is_stmt 0 discriminator 1 view .LVU133
 624 0056 A642     		cmp	r6, r4
 625 0058 0FD9     		bls	.L62
 219:Core/Inc/ssd1306/ssd1306.c ****                 ssd1306_DrawPixel(SSD1306.CurrentX + j, (SSD1306.CurrentY + i), (SSD1306_COLOR) col
 626              		.loc 1 219 13 is_stmt 1 view .LVU134
 219:Core/Inc/ssd1306/ssd1306.c ****                 ssd1306_DrawPixel(SSD1306.CurrentX + j, (SSD1306.CurrentY + i), (SSD1306_COLOR) col
 627              		.loc 1 219 19 is_stmt 0 view .LVU135
 628 005a 08FA04F3 		lsl	r3, r8, r4
 219:Core/Inc/ssd1306/ssd1306.c ****                 ssd1306_DrawPixel(SSD1306.CurrentX + j, (SSD1306.CurrentY + i), (SSD1306_COLOR) col
 629              		.loc 1 219 15 view .LVU136
 630 005e 13F4004F 		tst	r3, #32768
 631 0062 EBD0     		beq	.L54
 220:Core/Inc/ssd1306/ssd1306.c ****             } else {
 632              		.loc 1 220 17 is_stmt 1 view .LVU137
 220:Core/Inc/ssd1306/ssd1306.c ****             } else {
 633              		.loc 1 220 42 is_stmt 0 view .LVU138
 634 0064 124B     		ldr	r3, .L64
 635 0066 1888     		ldrh	r0, [r3]
 220:Core/Inc/ssd1306/ssd1306.c ****             } else {
 636              		.loc 1 220 65 view .LVU139
 637 0068 5988     		ldrh	r1, [r3, #2]
 220:Core/Inc/ssd1306/ssd1306.c ****             } else {
 638              		.loc 1 220 17 view .LVU140
 639 006a 2944     		add	r1, r1, r5
 640 006c 2044     		add	r0, r0, r4
 641 006e 3A46     		mov	r2, r7
 642 0070 C9B2     		uxtb	r1, r1
 643 0072 C0B2     		uxtb	r0, r0
 644 0074 FFF7FEFF 		bl	ssd1306_DrawPixel
 645              	.LVL57:
 646 0078 ECE7     		b	.L55
 647              	.L62:
 216:Core/Inc/ssd1306/ssd1306.c ****         b = Font.data[(ch - 32) * Font.FontHeight + i];
 648              		.loc 1 216 37 is_stmt 1 discriminator 2 view .LVU141
 216:Core/Inc/ssd1306/ssd1306.c ****         b = Font.data[(ch - 32) * Font.FontHeight + i];
 649              		.loc 1 216 38 is_stmt 0 discriminator 2 view .LVU142
 650 007a 0135     		adds	r5, r5, #1
ARM GAS  C:\Users\arada\AppData\Local\Temp\cc2X3IhP.s 			page 20


 651              	.LVL58:
 652              	.L52:
 216:Core/Inc/ssd1306/ssd1306.c ****         b = Font.data[(ch - 32) * Font.FontHeight + i];
 653              		.loc 1 216 16 is_stmt 1 discriminator 1 view .LVU143
 216:Core/Inc/ssd1306/ssd1306.c ****         b = Font.data[(ch - 32) * Font.FontHeight + i];
 654              		.loc 1 216 5 is_stmt 0 discriminator 1 view .LVU144
 655 007c AA45     		cmp	r10, r5
 656 007e 08D9     		bls	.L63
 217:Core/Inc/ssd1306/ssd1306.c ****         for(j = 0; j < Font.FontWidth; j++) {
 657              		.loc 1 217 9 is_stmt 1 view .LVU145
 217:Core/Inc/ssd1306/ssd1306.c ****         for(j = 0; j < Font.FontWidth; j++) {
 658              		.loc 1 217 27 is_stmt 0 view .LVU146
 659 0080 A9F12003 		sub	r3, r9, #32
 217:Core/Inc/ssd1306/ssd1306.c ****         for(j = 0; j < Font.FontWidth; j++) {
 660              		.loc 1 217 51 view .LVU147
 661 0084 03FB0B53 		mla	r3, r3, fp, r5
 217:Core/Inc/ssd1306/ssd1306.c ****         for(j = 0; j < Font.FontWidth; j++) {
 662              		.loc 1 217 22 view .LVU148
 663 0088 019A     		ldr	r2, [sp, #4]
 664 008a 32F81380 		ldrh	r8, [r2, r3, lsl #1]
 665              	.LVL59:
 218:Core/Inc/ssd1306/ssd1306.c ****             if((b << j) & 0x8000)  {
 666              		.loc 1 218 9 is_stmt 1 view .LVU149
 218:Core/Inc/ssd1306/ssd1306.c ****             if((b << j) & 0x8000)  {
 667              		.loc 1 218 15 is_stmt 0 view .LVU150
 668 008e 0024     		movs	r4, #0
 218:Core/Inc/ssd1306/ssd1306.c ****             if((b << j) & 0x8000)  {
 669              		.loc 1 218 9 view .LVU151
 670 0090 E1E7     		b	.L53
 671              	.LVL60:
 672              	.L63:
 228:Core/Inc/ssd1306/ssd1306.c ****     
 673              		.loc 1 228 5 is_stmt 1 view .LVU152
 228:Core/Inc/ssd1306/ssd1306.c ****     
 674              		.loc 1 228 22 is_stmt 0 view .LVU153
 675 0092 074B     		ldr	r3, .L64
 676 0094 1A88     		ldrh	r2, [r3]
 677 0096 1644     		add	r6, r6, r2
 678 0098 1E80     		strh	r6, [r3]	@ movhi
 231:Core/Inc/ssd1306/ssd1306.c **** }
 679              		.loc 1 231 5 is_stmt 1 view .LVU154
 231:Core/Inc/ssd1306/ssd1306.c **** }
 680              		.loc 1 231 12 is_stmt 0 view .LVU155
 681 009a 4846     		mov	r0, r9
 682 009c 00E0     		b	.L51
 683              	.LVL61:
 684              	.L58:
 205:Core/Inc/ssd1306/ssd1306.c ****     
 685              		.loc 1 205 16 view .LVU156
 686 009e 0020     		movs	r0, #0
 687              	.L51:
 232:Core/Inc/ssd1306/ssd1306.c **** 
 688              		.loc 1 232 1 view .LVU157
 689 00a0 03B0     		add	sp, sp, #12
 690              	.LCFI10:
 691              		.cfi_remember_state
 692              		.cfi_def_cfa_offset 36
ARM GAS  C:\Users\arada\AppData\Local\Temp\cc2X3IhP.s 			page 21


 693              		@ sp needed
 694 00a2 BDE8F08F 		pop	{r4, r5, r6, r7, r8, r9, r10, fp, pc}
 695              	.L59:
 696              	.LCFI11:
 697              		.cfi_restore_state
 212:Core/Inc/ssd1306/ssd1306.c ****     }
 698              		.loc 1 212 16 view .LVU158
 699 00a6 0020     		movs	r0, #0
 700 00a8 FAE7     		b	.L51
 701              	.L60:
 702 00aa 0020     		movs	r0, #0
 703 00ac F8E7     		b	.L51
 704              	.L65:
 705 00ae 00BF     		.align	2
 706              	.L64:
 707 00b0 00000000 		.word	.LANCHOR1
 708              		.cfi_endproc
 709              	.LFE76:
 711              		.section	.text.ssd1306_WriteString,"ax",%progbits
 712              		.align	1
 713              		.global	ssd1306_WriteString
 714              		.syntax unified
 715              		.thumb
 716              		.thumb_func
 717              		.fpu softvfp
 719              	ssd1306_WriteString:
 720              	.LVL62:
 721              	.LFB77:
 235:Core/Inc/ssd1306/ssd1306.c ****     // Write until null-byte
 722              		.loc 1 235 72 is_stmt 1 view -0
 723              		.cfi_startproc
 724              		@ args = 0, pretend = 0, frame = 8
 725              		@ frame_needed = 0, uses_anonymous_args = 0
 235:Core/Inc/ssd1306/ssd1306.c ****     // Write until null-byte
 726              		.loc 1 235 72 is_stmt 0 view .LVU160
 727 0000 30B5     		push	{r4, r5, lr}
 728              	.LCFI12:
 729              		.cfi_def_cfa_offset 12
 730              		.cfi_offset 4, -12
 731              		.cfi_offset 5, -8
 732              		.cfi_offset 14, -4
 733 0002 83B0     		sub	sp, sp, #12
 734              	.LCFI13:
 735              		.cfi_def_cfa_offset 24
 736 0004 0446     		mov	r4, r0
 737 0006 02A8     		add	r0, sp, #8
 738              	.LVL63:
 235:Core/Inc/ssd1306/ssd1306.c ****     // Write until null-byte
 739              		.loc 1 235 72 view .LVU161
 740 0008 00E90600 		stmdb	r0, {r1, r2}
 741 000c 1D46     		mov	r5, r3
 237:Core/Inc/ssd1306/ssd1306.c ****         if (ssd1306_WriteChar(*str, Font, color) != *str) {
 742              		.loc 1 237 5 is_stmt 1 view .LVU162
 743              	.LVL64:
 744              	.L67:
 237:Core/Inc/ssd1306/ssd1306.c ****         if (ssd1306_WriteChar(*str, Font, color) != *str) {
 745              		.loc 1 237 11 view .LVU163
ARM GAS  C:\Users\arada\AppData\Local\Temp\cc2X3IhP.s 			page 22


 237:Core/Inc/ssd1306/ssd1306.c ****         if (ssd1306_WriteChar(*str, Font, color) != *str) {
 746              		.loc 1 237 12 is_stmt 0 view .LVU164
 747 000e 2078     		ldrb	r0, [r4]	@ zero_extendqisi2
 237:Core/Inc/ssd1306/ssd1306.c ****         if (ssd1306_WriteChar(*str, Font, color) != *str) {
 748              		.loc 1 237 11 view .LVU165
 749 0010 58B1     		cbz	r0, .L68
 238:Core/Inc/ssd1306/ssd1306.c ****             // Char could not be written
 750              		.loc 1 238 9 is_stmt 1 view .LVU166
 238:Core/Inc/ssd1306/ssd1306.c ****             // Char could not be written
 751              		.loc 1 238 13 is_stmt 0 view .LVU167
 752 0012 2B46     		mov	r3, r5
 753 0014 02AA     		add	r2, sp, #8
 754 0016 12E90600 		ldmdb	r2, {r1, r2}
 755 001a FFF7FEFF 		bl	ssd1306_WriteChar
 756              	.LVL65:
 757 001e 0246     		mov	r2, r0
 238:Core/Inc/ssd1306/ssd1306.c ****             // Char could not be written
 758              		.loc 1 238 53 view .LVU168
 759 0020 2078     		ldrb	r0, [r4]	@ zero_extendqisi2
 238:Core/Inc/ssd1306/ssd1306.c ****             // Char could not be written
 760              		.loc 1 238 12 view .LVU169
 761 0022 8242     		cmp	r2, r0
 762 0024 01D1     		bne	.L68
 244:Core/Inc/ssd1306/ssd1306.c ****     }
 763              		.loc 1 244 9 is_stmt 1 view .LVU170
 244:Core/Inc/ssd1306/ssd1306.c ****     }
 764              		.loc 1 244 12 is_stmt 0 view .LVU171
 765 0026 0134     		adds	r4, r4, #1
 766              	.LVL66:
 244:Core/Inc/ssd1306/ssd1306.c ****     }
 767              		.loc 1 244 12 view .LVU172
 768 0028 F1E7     		b	.L67
 769              	.L68:
 249:Core/Inc/ssd1306/ssd1306.c **** 
 770              		.loc 1 249 1 view .LVU173
 771 002a 03B0     		add	sp, sp, #12
 772              	.LCFI14:
 773              		.cfi_def_cfa_offset 12
 774              		@ sp needed
 775 002c 30BD     		pop	{r4, r5, pc}
 249:Core/Inc/ssd1306/ssd1306.c **** 
 776              		.loc 1 249 1 view .LVU174
 777              		.cfi_endproc
 778              	.LFE77:
 780              		.section	.text.ssd1306_SetCursor,"ax",%progbits
 781              		.align	1
 782              		.global	ssd1306_SetCursor
 783              		.syntax unified
 784              		.thumb
 785              		.thumb_func
 786              		.fpu softvfp
 788              	ssd1306_SetCursor:
 789              	.LVL67:
 790              	.LFB78:
 252:Core/Inc/ssd1306/ssd1306.c ****     SSD1306.CurrentX = x;
 791              		.loc 1 252 46 is_stmt 1 view -0
 792              		.cfi_startproc
ARM GAS  C:\Users\arada\AppData\Local\Temp\cc2X3IhP.s 			page 23


 793              		@ args = 0, pretend = 0, frame = 0
 794              		@ frame_needed = 0, uses_anonymous_args = 0
 795              		@ link register save eliminated.
 253:Core/Inc/ssd1306/ssd1306.c ****     SSD1306.CurrentY = y;
 796              		.loc 1 253 5 view .LVU176
 253:Core/Inc/ssd1306/ssd1306.c ****     SSD1306.CurrentY = y;
 797              		.loc 1 253 22 is_stmt 0 view .LVU177
 798 0000 014B     		ldr	r3, .L72
 799 0002 1880     		strh	r0, [r3]	@ movhi
 254:Core/Inc/ssd1306/ssd1306.c **** }
 800              		.loc 1 254 5 is_stmt 1 view .LVU178
 254:Core/Inc/ssd1306/ssd1306.c **** }
 801              		.loc 1 254 22 is_stmt 0 view .LVU179
 802 0004 5980     		strh	r1, [r3, #2]	@ movhi
 255:Core/Inc/ssd1306/ssd1306.c **** 
 803              		.loc 1 255 1 view .LVU180
 804 0006 7047     		bx	lr
 805              	.L73:
 806              		.align	2
 807              	.L72:
 808 0008 00000000 		.word	.LANCHOR1
 809              		.cfi_endproc
 810              	.LFE78:
 812              		.section	.text.ssd1306_Line,"ax",%progbits
 813              		.align	1
 814              		.global	ssd1306_Line
 815              		.syntax unified
 816              		.thumb
 817              		.thumb_func
 818              		.fpu softvfp
 820              	ssd1306_Line:
 821              	.LVL68:
 822              	.LFB79:
 258:Core/Inc/ssd1306/ssd1306.c ****   int32_t deltaX = abs(x2 - x1);
 823              		.loc 1 258 88 is_stmt 1 view -0
 824              		.cfi_startproc
 825              		@ args = 4, pretend = 0, frame = 8
 826              		@ frame_needed = 0, uses_anonymous_args = 0
 258:Core/Inc/ssd1306/ssd1306.c ****   int32_t deltaX = abs(x2 - x1);
 827              		.loc 1 258 88 is_stmt 0 view .LVU182
 828 0000 2DE9F04F 		push	{r4, r5, r6, r7, r8, r9, r10, fp, lr}
 829              	.LCFI15:
 830              		.cfi_def_cfa_offset 36
 831              		.cfi_offset 4, -36
 832              		.cfi_offset 5, -32
 833              		.cfi_offset 6, -28
 834              		.cfi_offset 7, -24
 835              		.cfi_offset 8, -20
 836              		.cfi_offset 9, -16
 837              		.cfi_offset 10, -12
 838              		.cfi_offset 11, -8
 839              		.cfi_offset 14, -4
 840 0004 83B0     		sub	sp, sp, #12
 841              	.LCFI16:
 842              		.cfi_def_cfa_offset 48
 843 0006 0446     		mov	r4, r0
 844 0008 0E46     		mov	r6, r1
ARM GAS  C:\Users\arada\AppData\Local\Temp\cc2X3IhP.s 			page 24


 845 000a 9146     		mov	r9, r2
 846 000c 9B46     		mov	fp, r3
 847 000e 9DF830A0 		ldrb	r10, [sp, #48]	@ zero_extendqisi2
 259:Core/Inc/ssd1306/ssd1306.c ****   int32_t deltaY = abs(y2 - y1);
 848              		.loc 1 259 3 is_stmt 1 view .LVU183
 259:Core/Inc/ssd1306/ssd1306.c ****   int32_t deltaY = abs(y2 - y1);
 849              		.loc 1 259 27 is_stmt 0 view .LVU184
 850 0012 A2EB0008 		sub	r8, r2, r0
 259:Core/Inc/ssd1306/ssd1306.c ****   int32_t deltaY = abs(y2 - y1);
 851              		.loc 1 259 11 view .LVU185
 852 0016 B8F1000F 		cmp	r8, #0
 853 001a B8BF     		it	lt
 854 001c C8F10008 		rsblt	r8, r8, #0
 855              	.LVL69:
 260:Core/Inc/ssd1306/ssd1306.c ****   int32_t signX = ((x1 < x2) ? 1 : -1);
 856              		.loc 1 260 3 is_stmt 1 view .LVU186
 260:Core/Inc/ssd1306/ssd1306.c ****   int32_t signX = ((x1 < x2) ? 1 : -1);
 857              		.loc 1 260 27 is_stmt 0 view .LVU187
 858 0020 5F1A     		subs	r7, r3, r1
 260:Core/Inc/ssd1306/ssd1306.c ****   int32_t signX = ((x1 < x2) ? 1 : -1);
 859              		.loc 1 260 11 view .LVU188
 860 0022 002F     		cmp	r7, #0
 861 0024 B8BF     		it	lt
 862 0026 7F42     		rsblt	r7, r7, #0
 863              	.LVL70:
 261:Core/Inc/ssd1306/ssd1306.c ****   int32_t signY = ((y1 < y2) ? 1 : -1);
 864              		.loc 1 261 3 is_stmt 1 view .LVU189
 261:Core/Inc/ssd1306/ssd1306.c ****   int32_t signY = ((y1 < y2) ? 1 : -1);
 865              		.loc 1 261 34 is_stmt 0 view .LVU190
 866 0028 8242     		cmp	r2, r0
 867 002a 0DD9     		bls	.L81
 868 002c 0123     		movs	r3, #1
 869              	.LVL71:
 261:Core/Inc/ssd1306/ssd1306.c ****   int32_t signY = ((y1 < y2) ? 1 : -1);
 870              		.loc 1 261 34 view .LVU191
 871 002e 0093     		str	r3, [sp]
 872              	.L75:
 873              	.LVL72:
 262:Core/Inc/ssd1306/ssd1306.c ****   int32_t error = deltaX - deltaY;
 874              		.loc 1 262 3 is_stmt 1 discriminator 4 view .LVU192
 262:Core/Inc/ssd1306/ssd1306.c ****   int32_t error = deltaX - deltaY;
 875              		.loc 1 262 34 is_stmt 0 discriminator 4 view .LVU193
 876 0030 B345     		cmp	fp, r6
 877 0032 0DD9     		bls	.L82
 262:Core/Inc/ssd1306/ssd1306.c ****   int32_t error = deltaX - deltaY;
 878              		.loc 1 262 34 view .LVU194
 879 0034 0123     		movs	r3, #1
 880 0036 0193     		str	r3, [sp, #4]
 881              	.L76:
 882              	.LVL73:
 263:Core/Inc/ssd1306/ssd1306.c ****   int32_t error2;
 883              		.loc 1 263 3 is_stmt 1 discriminator 4 view .LVU195
 263:Core/Inc/ssd1306/ssd1306.c ****   int32_t error2;
 884              		.loc 1 263 11 is_stmt 0 discriminator 4 view .LVU196
 885 0038 A8EB0705 		sub	r5, r8, r7
 886              	.LVL74:
 264:Core/Inc/ssd1306/ssd1306.c ****     
ARM GAS  C:\Users\arada\AppData\Local\Temp\cc2X3IhP.s 			page 25


 887              		.loc 1 264 3 is_stmt 1 discriminator 4 view .LVU197
 266:Core/Inc/ssd1306/ssd1306.c ****     while((x1 != x2) || (y1 != y2))
 888              		.loc 1 266 3 discriminator 4 view .LVU198
 889 003c 5246     		mov	r2, r10
 890              	.LVL75:
 266:Core/Inc/ssd1306/ssd1306.c ****     while((x1 != x2) || (y1 != y2))
 891              		.loc 1 266 3 is_stmt 0 discriminator 4 view .LVU199
 892 003e 5946     		mov	r1, fp
 893              	.LVL76:
 266:Core/Inc/ssd1306/ssd1306.c ****     while((x1 != x2) || (y1 != y2))
 894              		.loc 1 266 3 discriminator 4 view .LVU200
 895 0040 4846     		mov	r0, r9
 896              	.LVL77:
 266:Core/Inc/ssd1306/ssd1306.c ****     while((x1 != x2) || (y1 != y2))
 897              		.loc 1 266 3 discriminator 4 view .LVU201
 898 0042 FFF7FEFF 		bl	ssd1306_DrawPixel
 899              	.LVL78:
 267:Core/Inc/ssd1306/ssd1306.c ****     {
 900              		.loc 1 267 5 is_stmt 1 discriminator 4 view .LVU202
 267:Core/Inc/ssd1306/ssd1306.c ****     {
 901              		.loc 1 267 10 is_stmt 0 discriminator 4 view .LVU203
 902 0046 1BE0     		b	.L77
 903              	.LVL79:
 904              	.L81:
 261:Core/Inc/ssd1306/ssd1306.c ****   int32_t signY = ((y1 < y2) ? 1 : -1);
 905              		.loc 1 261 34 view .LVU204
 906 0048 4FF0FF33 		mov	r3, #-1
 907              	.LVL80:
 261:Core/Inc/ssd1306/ssd1306.c ****   int32_t signY = ((y1 < y2) ? 1 : -1);
 908              		.loc 1 261 34 view .LVU205
 909 004c 0093     		str	r3, [sp]
 910 004e EFE7     		b	.L75
 911              	.LVL81:
 912              	.L82:
 262:Core/Inc/ssd1306/ssd1306.c ****   int32_t error = deltaX - deltaY;
 913              		.loc 1 262 34 view .LVU206
 914 0050 4FF0FF33 		mov	r3, #-1
 915 0054 0193     		str	r3, [sp, #4]
 916 0056 EFE7     		b	.L76
 917              	.LVL82:
 918              	.L80:
 269:Core/Inc/ssd1306/ssd1306.c ****     error2 = error * 2;
 919              		.loc 1 269 5 is_stmt 1 view .LVU207
 920 0058 5246     		mov	r2, r10
 921 005a 3146     		mov	r1, r6
 922 005c 2046     		mov	r0, r4
 923 005e FFF7FEFF 		bl	ssd1306_DrawPixel
 924              	.LVL83:
 270:Core/Inc/ssd1306/ssd1306.c ****     if(error2 > -deltaY)
 925              		.loc 1 270 5 view .LVU208
 270:Core/Inc/ssd1306/ssd1306.c ****     if(error2 > -deltaY)
 926              		.loc 1 270 12 is_stmt 0 view .LVU209
 927 0062 6B00     		lsls	r3, r5, #1
 928              	.LVL84:
 271:Core/Inc/ssd1306/ssd1306.c ****     {
 929              		.loc 1 271 5 is_stmt 1 view .LVU210
 271:Core/Inc/ssd1306/ssd1306.c ****     {
ARM GAS  C:\Users\arada\AppData\Local\Temp\cc2X3IhP.s 			page 26


 930              		.loc 1 271 17 is_stmt 0 view .LVU211
 931 0064 7A42     		rsbs	r2, r7, #0
 271:Core/Inc/ssd1306/ssd1306.c ****     {
 932              		.loc 1 271 7 view .LVU212
 933 0066 B2EB450F 		cmp	r2, r5, lsl #1
 934 006a 03DA     		bge	.L78
 273:Core/Inc/ssd1306/ssd1306.c ****       x1 += signX;
 935              		.loc 1 273 7 is_stmt 1 view .LVU213
 273:Core/Inc/ssd1306/ssd1306.c ****       x1 += signX;
 936              		.loc 1 273 13 is_stmt 0 view .LVU214
 937 006c ED1B     		subs	r5, r5, r7
 938              	.LVL85:
 274:Core/Inc/ssd1306/ssd1306.c ****     }
 939              		.loc 1 274 7 is_stmt 1 view .LVU215
 274:Core/Inc/ssd1306/ssd1306.c ****     }
 940              		.loc 1 274 10 is_stmt 0 view .LVU216
 941 006e 009A     		ldr	r2, [sp]
 942 0070 1444     		add	r4, r4, r2
 943              	.LVL86:
 274:Core/Inc/ssd1306/ssd1306.c ****     }
 944              		.loc 1 274 10 view .LVU217
 945 0072 E4B2     		uxtb	r4, r4
 946              	.LVL87:
 947              	.L78:
 279:Core/Inc/ssd1306/ssd1306.c ****         
 948              		.loc 1 279 5 is_stmt 1 view .LVU218
 281:Core/Inc/ssd1306/ssd1306.c ****     {
 949              		.loc 1 281 5 view .LVU219
 281:Core/Inc/ssd1306/ssd1306.c ****     {
 950              		.loc 1 281 7 is_stmt 0 view .LVU220
 951 0074 9845     		cmp	r8, r3
 952 0076 03DD     		ble	.L77
 283:Core/Inc/ssd1306/ssd1306.c ****       y1 += signY;
 953              		.loc 1 283 7 is_stmt 1 view .LVU221
 283:Core/Inc/ssd1306/ssd1306.c ****       y1 += signY;
 954              		.loc 1 283 13 is_stmt 0 view .LVU222
 955 0078 4544     		add	r5, r5, r8
 956              	.LVL88:
 284:Core/Inc/ssd1306/ssd1306.c ****     }
 957              		.loc 1 284 7 is_stmt 1 view .LVU223
 284:Core/Inc/ssd1306/ssd1306.c ****     }
 958              		.loc 1 284 10 is_stmt 0 view .LVU224
 959 007a 019B     		ldr	r3, [sp, #4]
 960              	.LVL89:
 284:Core/Inc/ssd1306/ssd1306.c ****     }
 961              		.loc 1 284 10 view .LVU225
 962 007c 1E44     		add	r6, r6, r3
 963              	.LVL90:
 284:Core/Inc/ssd1306/ssd1306.c ****     }
 964              		.loc 1 284 10 view .LVU226
 965 007e F6B2     		uxtb	r6, r6
 966              	.LVL91:
 967              	.L77:
 289:Core/Inc/ssd1306/ssd1306.c ****   }
 968              		.loc 1 289 5 is_stmt 1 view .LVU227
 267:Core/Inc/ssd1306/ssd1306.c ****     {
 969              		.loc 1 267 10 view .LVU228
ARM GAS  C:\Users\arada\AppData\Local\Temp\cc2X3IhP.s 			page 27


 970 0080 4C45     		cmp	r4, r9
 971 0082 E9D1     		bne	.L80
 267:Core/Inc/ssd1306/ssd1306.c ****     {
 972              		.loc 1 267 22 is_stmt 0 discriminator 1 view .LVU229
 973 0084 5E45     		cmp	r6, fp
 974 0086 E7D1     		bne	.L80
 292:Core/Inc/ssd1306/ssd1306.c **** //Draw polyline
 975              		.loc 1 292 1 view .LVU230
 976 0088 03B0     		add	sp, sp, #12
 977              	.LCFI17:
 978              		.cfi_def_cfa_offset 36
 979              	.LVL92:
 292:Core/Inc/ssd1306/ssd1306.c **** //Draw polyline
 980              		.loc 1 292 1 view .LVU231
 981              		@ sp needed
 982 008a BDE8F08F 		pop	{r4, r5, r6, r7, r8, r9, r10, fp, pc}
 292:Core/Inc/ssd1306/ssd1306.c **** //Draw polyline
 983              		.loc 1 292 1 view .LVU232
 984              		.cfi_endproc
 985              	.LFE79:
 987              		.section	.text.ssd1306_Polyline,"ax",%progbits
 988              		.align	1
 989              		.global	ssd1306_Polyline
 990              		.syntax unified
 991              		.thumb
 992              		.thumb_func
 993              		.fpu softvfp
 995              	ssd1306_Polyline:
 996              	.LVL93:
 997              	.LFB80:
 294:Core/Inc/ssd1306/ssd1306.c ****   uint16_t i;
 998              		.loc 1 294 97 is_stmt 1 view -0
 999              		.cfi_startproc
 1000              		@ args = 0, pretend = 0, frame = 0
 1001              		@ frame_needed = 0, uses_anonymous_args = 0
 295:Core/Inc/ssd1306/ssd1306.c ****   if(par_vertex != 0){
 1002              		.loc 1 295 3 view .LVU234
 296:Core/Inc/ssd1306/ssd1306.c ****     for(i = 1; i < par_size; i++){
 1003              		.loc 1 296 3 view .LVU235
 296:Core/Inc/ssd1306/ssd1306.c ****     for(i = 1; i < par_size; i++){
 1004              		.loc 1 296 5 is_stmt 0 view .LVU236
 1005 0000 38B1     		cbz	r0, .L92
 294:Core/Inc/ssd1306/ssd1306.c ****   uint16_t i;
 1006              		.loc 1 294 97 view .LVU237
 1007 0002 2DE9F041 		push	{r4, r5, r6, r7, r8, lr}
 1008              	.LCFI18:
 1009              		.cfi_def_cfa_offset 24
 1010              		.cfi_offset 4, -24
 1011              		.cfi_offset 5, -20
 1012              		.cfi_offset 6, -16
 1013              		.cfi_offset 7, -12
 1014              		.cfi_offset 8, -8
 1015              		.cfi_offset 14, -4
 1016 0006 82B0     		sub	sp, sp, #8
 1017              	.LCFI19:
 1018              		.cfi_def_cfa_offset 32
 1019 0008 0F46     		mov	r7, r1
ARM GAS  C:\Users\arada\AppData\Local\Temp\cc2X3IhP.s 			page 28


 1020 000a 9046     		mov	r8, r2
 1021 000c 0546     		mov	r5, r0
 297:Core/Inc/ssd1306/ssd1306.c ****       ssd1306_Line(par_vertex[i - 1].x, par_vertex[i - 1].y, par_vertex[i].x, par_vertex[i].y, colo
 1022              		.loc 1 297 11 view .LVU238
 1023 000e 0124     		movs	r4, #1
 1024 0010 13E0     		b	.L85
 1025              	.L92:
 1026              	.LCFI20:
 1027              		.cfi_def_cfa_offset 0
 1028              		.cfi_restore 4
 1029              		.cfi_restore 5
 1030              		.cfi_restore 6
 1031              		.cfi_restore 7
 1032              		.cfi_restore 8
 1033              		.cfi_restore 14
 297:Core/Inc/ssd1306/ssd1306.c ****       ssd1306_Line(par_vertex[i - 1].x, par_vertex[i - 1].y, par_vertex[i].x, par_vertex[i].y, colo
 1034              		.loc 1 297 11 view .LVU239
 1035 0012 7047     		bx	lr
 1036              	.LVL94:
 1037              	.L87:
 1038              	.LCFI21:
 1039              		.cfi_def_cfa_offset 32
 1040              		.cfi_offset 4, -24
 1041              		.cfi_offset 5, -20
 1042              		.cfi_offset 6, -16
 1043              		.cfi_offset 7, -12
 1044              		.cfi_offset 8, -8
 1045              		.cfi_offset 14, -4
 298:Core/Inc/ssd1306/ssd1306.c ****     }
 1046              		.loc 1 298 7 is_stmt 1 discriminator 3 view .LVU240
 298:Core/Inc/ssd1306/ssd1306.c ****     }
 1047              		.loc 1 298 30 is_stmt 0 discriminator 3 view .LVU241
 1048 0014 04F10040 		add	r0, r4, #-2147483648
 1049 0018 0138     		subs	r0, r0, #1
 1050 001a 05EB4006 		add	r6, r5, r0, lsl #1
 298:Core/Inc/ssd1306/ssd1306.c ****     }
 1051              		.loc 1 298 72 discriminator 3 view .LVU242
 1052 001e 05EB4403 		add	r3, r5, r4, lsl #1
 298:Core/Inc/ssd1306/ssd1306.c ****     }
 1053              		.loc 1 298 7 discriminator 3 view .LVU243
 1054 0022 CDF80080 		str	r8, [sp]
 1055 0026 5B78     		ldrb	r3, [r3, #1]	@ zero_extendqisi2
 1056 0028 15F81420 		ldrb	r2, [r5, r4, lsl #1]	@ zero_extendqisi2
 1057 002c 7178     		ldrb	r1, [r6, #1]	@ zero_extendqisi2
 1058 002e 15F81000 		ldrb	r0, [r5, r0, lsl #1]	@ zero_extendqisi2
 1059 0032 FFF7FEFF 		bl	ssd1306_Line
 1060              	.LVL95:
 297:Core/Inc/ssd1306/ssd1306.c ****       ssd1306_Line(par_vertex[i - 1].x, par_vertex[i - 1].y, par_vertex[i].x, par_vertex[i].y, colo
 1061              		.loc 1 297 30 is_stmt 1 discriminator 3 view .LVU244
 297:Core/Inc/ssd1306/ssd1306.c ****       ssd1306_Line(par_vertex[i - 1].x, par_vertex[i - 1].y, par_vertex[i].x, par_vertex[i].y, colo
 1062              		.loc 1 297 31 is_stmt 0 discriminator 3 view .LVU245
 1063 0036 0134     		adds	r4, r4, #1
 1064              	.LVL96:
 297:Core/Inc/ssd1306/ssd1306.c ****       ssd1306_Line(par_vertex[i - 1].x, par_vertex[i - 1].y, par_vertex[i].x, par_vertex[i].y, colo
 1065              		.loc 1 297 31 discriminator 3 view .LVU246
 1066 0038 A4B2     		uxth	r4, r4
 1067              	.LVL97:
ARM GAS  C:\Users\arada\AppData\Local\Temp\cc2X3IhP.s 			page 29


 1068              	.L85:
 297:Core/Inc/ssd1306/ssd1306.c ****       ssd1306_Line(par_vertex[i - 1].x, par_vertex[i - 1].y, par_vertex[i].x, par_vertex[i].y, colo
 1069              		.loc 1 297 16 is_stmt 1 discriminator 1 view .LVU247
 297:Core/Inc/ssd1306/ssd1306.c ****       ssd1306_Line(par_vertex[i - 1].x, par_vertex[i - 1].y, par_vertex[i].x, par_vertex[i].y, colo
 1070              		.loc 1 297 5 is_stmt 0 discriminator 1 view .LVU248
 1071 003a BC42     		cmp	r4, r7
 1072 003c EAD3     		bcc	.L87
 306:Core/Inc/ssd1306/ssd1306.c **** /*Convert Degrees to Radians*/
 1073              		.loc 1 306 1 view .LVU249
 1074 003e 02B0     		add	sp, sp, #8
 1075              	.LCFI22:
 1076              		.cfi_def_cfa_offset 24
 1077              		@ sp needed
 1078 0040 BDE8F081 		pop	{r4, r5, r6, r7, r8, pc}
 306:Core/Inc/ssd1306/ssd1306.c **** /*Convert Degrees to Radians*/
 1079              		.loc 1 306 1 view .LVU250
 1080              		.cfi_endproc
 1081              	.LFE80:
 1083              		.global	__aeabi_ui2f
 1084              		.global	__aeabi_fdiv
 1085              		.global	__aeabi_fmul
 1086              		.global	__aeabi_i2d
 1087              		.global	__aeabi_d2iz
 1088              		.section	.text.ssd1306_DrawArc,"ax",%progbits
 1089              		.align	1
 1090              		.global	ssd1306_DrawArc
 1091              		.syntax unified
 1092              		.thumb
 1093              		.thumb_func
 1094              		.fpu softvfp
 1096              	ssd1306_DrawArc:
 1097              	.LVL98:
 1098              	.LFB83:
 325:Core/Inc/ssd1306/ssd1306.c **** /*DrawArc. Draw angle is beginning from 4 quart of trigonometric circle (3pi/2)
 326:Core/Inc/ssd1306/ssd1306.c ****  * start_angle in degree
 327:Core/Inc/ssd1306/ssd1306.c ****  * sweep in degree
 328:Core/Inc/ssd1306/ssd1306.c ****  */
 329:Core/Inc/ssd1306/ssd1306.c **** void ssd1306_DrawArc(uint8_t x, uint8_t y, uint8_t radius, uint16_t start_angle, uint16_t sweep, SS
 1099              		.loc 1 329 119 is_stmt 1 view -0
 1100              		.cfi_startproc
 1101              		@ args = 8, pretend = 0, frame = 32
 1102              		@ frame_needed = 0, uses_anonymous_args = 0
 1103              		.loc 1 329 119 is_stmt 0 view .LVU252
 1104 0000 2DE9F04F 		push	{r4, r5, r6, r7, r8, r9, r10, fp, lr}
 1105              	.LCFI23:
 1106              		.cfi_def_cfa_offset 36
 1107              		.cfi_offset 4, -36
 1108              		.cfi_offset 5, -32
 1109              		.cfi_offset 6, -28
 1110              		.cfi_offset 7, -24
 1111              		.cfi_offset 8, -20
 1112              		.cfi_offset 9, -16
 1113              		.cfi_offset 10, -12
 1114              		.cfi_offset 11, -8
 1115              		.cfi_offset 14, -4
 1116 0004 8BB0     		sub	sp, sp, #44
 1117              	.LCFI24:
ARM GAS  C:\Users\arada\AppData\Local\Temp\cc2X3IhP.s 			page 30


 1118              		.cfi_def_cfa_offset 80
 1119 0006 8146     		mov	r9, r0
 1120 0008 8B46     		mov	fp, r1
 1121 000a 0792     		str	r2, [sp, #28]
 1122 000c 1D46     		mov	r5, r3
 1123 000e 9DF85430 		ldrb	r3, [sp, #84]	@ zero_extendqisi2
 1124              	.LVL99:
 1125              		.loc 1 329 119 view .LVU253
 1126 0012 0893     		str	r3, [sp, #32]
 330:Core/Inc/ssd1306/ssd1306.c ****     #define CIRCLE_APPROXIMATION_SEGMENTS 36
 331:Core/Inc/ssd1306/ssd1306.c ****     float approx_degree;
 1127              		.loc 1 331 5 is_stmt 1 view .LVU254
 332:Core/Inc/ssd1306/ssd1306.c ****     uint32_t approx_segments;
 1128              		.loc 1 332 5 view .LVU255
 333:Core/Inc/ssd1306/ssd1306.c ****     uint8_t xp1,xp2;
 1129              		.loc 1 333 5 view .LVU256
 334:Core/Inc/ssd1306/ssd1306.c ****     uint8_t yp1,yp2;
 1130              		.loc 1 334 5 view .LVU257
 335:Core/Inc/ssd1306/ssd1306.c ****     uint32_t count = 0;
 1131              		.loc 1 335 5 view .LVU258
 1132              	.LVL100:
 336:Core/Inc/ssd1306/ssd1306.c ****     uint32_t loc_sweep = 0;
 1133              		.loc 1 336 5 view .LVU259
 337:Core/Inc/ssd1306/ssd1306.c ****     float rad;
 1134              		.loc 1 337 5 view .LVU260
 338:Core/Inc/ssd1306/ssd1306.c ****     
 339:Core/Inc/ssd1306/ssd1306.c ****     loc_sweep = ssd1306_NormalizeTo0_360(sweep);
 1135              		.loc 1 339 5 view .LVU261
 1136              		.loc 1 339 17 is_stmt 0 view .LVU262
 1137 0014 BDF85000 		ldrh	r0, [sp, #80]
 1138              	.LVL101:
 1139              		.loc 1 339 17 view .LVU263
 1140 0018 FFF7FEFF 		bl	ssd1306_NormalizeTo0_360
 1141              	.LVL102:
 1142              		.loc 1 339 17 view .LVU264
 1143 001c 0446     		mov	r4, r0
 1144              	.LVL103:
 340:Core/Inc/ssd1306/ssd1306.c ****     
 341:Core/Inc/ssd1306/ssd1306.c ****     count = (ssd1306_NormalizeTo0_360(start_angle) * CIRCLE_APPROXIMATION_SEGMENTS) / 360;
 1145              		.loc 1 341 5 is_stmt 1 view .LVU265
 1146              		.loc 1 341 14 is_stmt 0 view .LVU266
 1147 001e 2846     		mov	r0, r5
 1148              	.LVL104:
 1149              		.loc 1 341 14 view .LVU267
 1150 0020 FFF7FEFF 		bl	ssd1306_NormalizeTo0_360
 1151              	.LVL105:
 1152              		.loc 1 341 85 view .LVU268
 1153 0024 444B     		ldr	r3, .L100
 1154 0026 83FB003A 		smull	r3, r10, r3, r0
 1155 002a C017     		asrs	r0, r0, #31
 1156 002c C0EBAA0A 		rsb	r10, r0, r10, asr #2
 1157              	.LVL106:
 342:Core/Inc/ssd1306/ssd1306.c ****     approx_segments = (loc_sweep * CIRCLE_APPROXIMATION_SEGMENTS) / 360;
 1158              		.loc 1 342 5 is_stmt 1 view .LVU269
 1159              		.loc 1 342 34 is_stmt 0 view .LVU270
 1160 0030 04EBC403 		add	r3, r4, r4, lsl #3
 1161              		.loc 1 342 21 view .LVU271
ARM GAS  C:\Users\arada\AppData\Local\Temp\cc2X3IhP.s 			page 31


 1162 0034 C3F35C03 		ubfx	r3, r3, #1, #29
 1163 0038 404A     		ldr	r2, .L100+4
 1164 003a A2FB0323 		umull	r2, r3, r2, r3
 1165 003e 9D08     		lsrs	r5, r3, #2
 1166              	.LVL107:
 343:Core/Inc/ssd1306/ssd1306.c ****     approx_degree = loc_sweep / (float)approx_segments;
 1167              		.loc 1 343 5 is_stmt 1 view .LVU272
 1168              		.loc 1 343 31 is_stmt 0 view .LVU273
 1169 0040 2046     		mov	r0, r4
 1170 0042 FFF7FEFF 		bl	__aeabi_ui2f
 1171              	.LVL108:
 1172 0046 0446     		mov	r4, r0
 1173              	.LVL109:
 1174              		.loc 1 343 31 view .LVU274
 1175 0048 0990     		str	r0, [sp, #36]	@ float
 1176              		.loc 1 343 33 view .LVU275
 1177 004a 2846     		mov	r0, r5
 1178 004c FFF7FEFF 		bl	__aeabi_ui2f
 1179              	.LVL110:
 1180 0050 0146     		mov	r1, r0
 1181              		.loc 1 343 19 view .LVU276
 1182 0052 2046     		mov	r0, r4
 1183 0054 FFF7FEFF 		bl	__aeabi_fdiv
 1184              	.LVL111:
 1185 0058 0746     		mov	r7, r0
 1186              	.LVL112:
 344:Core/Inc/ssd1306/ssd1306.c ****     while(count < approx_segments)
 1187              		.loc 1 344 5 is_stmt 1 view .LVU277
 1188 005a A846     		mov	r8, r5
 1189              		.loc 1 344 10 is_stmt 0 view .LVU278
 1190 005c 2BE0     		b	.L94
 1191              	.LVL113:
 1192              	.L95:
 345:Core/Inc/ssd1306/ssd1306.c ****     {
 346:Core/Inc/ssd1306/ssd1306.c ****         rad = ssd1306_DegToRad(count*approx_degree);
 347:Core/Inc/ssd1306/ssd1306.c ****         xp1 = x + (int8_t)(sin(rad)*radius);
 348:Core/Inc/ssd1306/ssd1306.c ****         yp1 = y + (int8_t)(cos(rad)*radius);    
 349:Core/Inc/ssd1306/ssd1306.c ****         count++;
 350:Core/Inc/ssd1306/ssd1306.c ****         if(count != approx_segments)
 351:Core/Inc/ssd1306/ssd1306.c ****         {
 352:Core/Inc/ssd1306/ssd1306.c ****             rad = ssd1306_DegToRad(count*approx_degree);
 353:Core/Inc/ssd1306/ssd1306.c ****         }
 354:Core/Inc/ssd1306/ssd1306.c ****         else
 355:Core/Inc/ssd1306/ssd1306.c ****         {            
 356:Core/Inc/ssd1306/ssd1306.c ****             rad = ssd1306_DegToRad(loc_sweep);
 1193              		.loc 1 356 13 is_stmt 1 view .LVU279
 1194              		.loc 1 356 19 is_stmt 0 view .LVU280
 1195 005e 0998     		ldr	r0, [sp, #36]	@ float
 1196 0060 FFF7FEFF 		bl	ssd1306_DegToRad
 1197              	.LVL114:
 1198              	.L96:
 357:Core/Inc/ssd1306/ssd1306.c ****         }
 358:Core/Inc/ssd1306/ssd1306.c ****         xp2 = x + (int8_t)(sin(rad)*radius);
 1199              		.loc 1 358 9 is_stmt 1 view .LVU281
 1200              		.loc 1 358 28 is_stmt 0 view .LVU282
 1201 0064 FFF7FEFF 		bl	__aeabi_f2d
 1202              	.LVL115:
ARM GAS  C:\Users\arada\AppData\Local\Temp\cc2X3IhP.s 			page 32


 1203              		.loc 1 358 28 view .LVU283
 1204 0068 0246     		mov	r2, r0
 1205 006a 0B46     		mov	r3, r1
 1206 006c CDE90423 		strd	r2, [sp, #16]
 1207 0070 FFF7FEFF 		bl	sin
 1208              	.LVL116:
 1209 0074 0246     		mov	r2, r0
 1210 0076 0B46     		mov	r3, r1
 1211              		.loc 1 358 36 view .LVU284
 1212 0078 DDE90201 		ldrd	r0, [sp, #8]
 1213 007c FFF7FEFF 		bl	__aeabi_dmul
 1214              	.LVL117:
 1215              		.loc 1 358 19 view .LVU285
 1216 0080 FFF7FEFF 		bl	__aeabi_d2iz
 1217              	.LVL118:
 1218 0084 C5B2     		uxtb	r5, r0
 1219              		.loc 1 358 13 view .LVU286
 1220 0086 4D44     		add	r5, r5, r9
 1221 0088 EDB2     		uxtb	r5, r5
 1222              	.LVL119:
 359:Core/Inc/ssd1306/ssd1306.c ****         yp2 = y + (int8_t)(cos(rad)*radius);    
 1223              		.loc 1 359 9 is_stmt 1 view .LVU287
 1224              		.loc 1 359 28 is_stmt 0 view .LVU288
 1225 008a DDE90401 		ldrd	r0, [sp, #16]
 1226 008e FFF7FEFF 		bl	cos
 1227              	.LVL120:
 1228 0092 0246     		mov	r2, r0
 1229 0094 0B46     		mov	r3, r1
 1230              		.loc 1 359 36 view .LVU289
 1231 0096 DDE90201 		ldrd	r0, [sp, #8]
 1232 009a FFF7FEFF 		bl	__aeabi_dmul
 1233              	.LVL121:
 1234              		.loc 1 359 19 view .LVU290
 1235 009e FFF7FEFF 		bl	__aeabi_d2iz
 1236              	.LVL122:
 1237 00a2 C3B2     		uxtb	r3, r0
 1238              		.loc 1 359 13 view .LVU291
 1239 00a4 5B44     		add	r3, r3, fp
 1240              	.LVL123:
 360:Core/Inc/ssd1306/ssd1306.c ****         ssd1306_Line(xp1,yp1,xp2,yp2,color);
 1241              		.loc 1 360 9 is_stmt 1 view .LVU292
 1242 00a6 089A     		ldr	r2, [sp, #32]
 1243 00a8 0092     		str	r2, [sp]
 1244 00aa DBB2     		uxtb	r3, r3
 1245              		.loc 1 360 9 is_stmt 0 view .LVU293
 1246 00ac 2A46     		mov	r2, r5
 1247 00ae 2146     		mov	r1, r4
 1248 00b0 3046     		mov	r0, r6
 1249 00b2 FFF7FEFF 		bl	ssd1306_Line
 1250              	.LVL124:
 1251              	.L94:
 344:Core/Inc/ssd1306/ssd1306.c ****     {
 1252              		.loc 1 344 10 is_stmt 1 view .LVU294
 1253 00b6 C245     		cmp	r10, r8
 1254 00b8 3BD2     		bcs	.L99
 346:Core/Inc/ssd1306/ssd1306.c ****         xp1 = x + (int8_t)(sin(rad)*radius);
 1255              		.loc 1 346 9 view .LVU295
ARM GAS  C:\Users\arada\AppData\Local\Temp\cc2X3IhP.s 			page 33


 346:Core/Inc/ssd1306/ssd1306.c ****         xp1 = x + (int8_t)(sin(rad)*radius);
 1256              		.loc 1 346 15 is_stmt 0 view .LVU296
 1257 00ba 5046     		mov	r0, r10
 1258 00bc FFF7FEFF 		bl	__aeabi_ui2f
 1259              	.LVL125:
 1260 00c0 3946     		mov	r1, r7
 1261 00c2 FFF7FEFF 		bl	__aeabi_fmul
 1262              	.LVL126:
 1263 00c6 FFF7FEFF 		bl	ssd1306_DegToRad
 1264              	.LVL127:
 347:Core/Inc/ssd1306/ssd1306.c ****         yp1 = y + (int8_t)(cos(rad)*radius);    
 1265              		.loc 1 347 9 is_stmt 1 view .LVU297
 347:Core/Inc/ssd1306/ssd1306.c ****         yp1 = y + (int8_t)(cos(rad)*radius);    
 1266              		.loc 1 347 28 is_stmt 0 view .LVU298
 1267 00ca FFF7FEFF 		bl	__aeabi_f2d
 1268              	.LVL128:
 347:Core/Inc/ssd1306/ssd1306.c ****         yp1 = y + (int8_t)(cos(rad)*radius);    
 1269              		.loc 1 347 28 view .LVU299
 1270 00ce 0446     		mov	r4, r0
 1271 00d0 0D46     		mov	r5, r1
 1272 00d2 FFF7FEFF 		bl	sin
 1273              	.LVL129:
 1274 00d6 CDE90401 		strd	r0, [sp, #16]
 347:Core/Inc/ssd1306/ssd1306.c ****         yp1 = y + (int8_t)(cos(rad)*radius);    
 1275              		.loc 1 347 36 view .LVU300
 1276 00da 0798     		ldr	r0, [sp, #28]
 1277 00dc FFF7FEFF 		bl	__aeabi_i2d
 1278              	.LVL130:
 1279 00e0 0246     		mov	r2, r0
 1280 00e2 0B46     		mov	r3, r1
 1281 00e4 CDE90223 		strd	r2, [sp, #8]
 1282 00e8 DDE90401 		ldrd	r0, [sp, #16]
 1283 00ec FFF7FEFF 		bl	__aeabi_dmul
 1284              	.LVL131:
 347:Core/Inc/ssd1306/ssd1306.c ****         yp1 = y + (int8_t)(cos(rad)*radius);    
 1285              		.loc 1 347 19 view .LVU301
 1286 00f0 FFF7FEFF 		bl	__aeabi_d2iz
 1287              	.LVL132:
 1288 00f4 C6B2     		uxtb	r6, r0
 347:Core/Inc/ssd1306/ssd1306.c ****         yp1 = y + (int8_t)(cos(rad)*radius);    
 1289              		.loc 1 347 13 view .LVU302
 1290 00f6 4E44     		add	r6, r6, r9
 1291 00f8 F6B2     		uxtb	r6, r6
 1292              	.LVL133:
 348:Core/Inc/ssd1306/ssd1306.c ****         count++;
 1293              		.loc 1 348 9 is_stmt 1 view .LVU303
 348:Core/Inc/ssd1306/ssd1306.c ****         count++;
 1294              		.loc 1 348 28 is_stmt 0 view .LVU304
 1295 00fa 2046     		mov	r0, r4
 1296 00fc 2946     		mov	r1, r5
 1297 00fe FFF7FEFF 		bl	cos
 1298              	.LVL134:
 1299 0102 0246     		mov	r2, r0
 1300 0104 0B46     		mov	r3, r1
 348:Core/Inc/ssd1306/ssd1306.c ****         count++;
 1301              		.loc 1 348 36 view .LVU305
 1302 0106 DDE90201 		ldrd	r0, [sp, #8]
ARM GAS  C:\Users\arada\AppData\Local\Temp\cc2X3IhP.s 			page 34


 1303 010a FFF7FEFF 		bl	__aeabi_dmul
 1304              	.LVL135:
 348:Core/Inc/ssd1306/ssd1306.c ****         count++;
 1305              		.loc 1 348 19 view .LVU306
 1306 010e FFF7FEFF 		bl	__aeabi_d2iz
 1307              	.LVL136:
 1308 0112 C4B2     		uxtb	r4, r0
 348:Core/Inc/ssd1306/ssd1306.c ****         count++;
 1309              		.loc 1 348 13 view .LVU307
 1310 0114 5C44     		add	r4, r4, fp
 1311 0116 E4B2     		uxtb	r4, r4
 1312              	.LVL137:
 349:Core/Inc/ssd1306/ssd1306.c ****         if(count != approx_segments)
 1313              		.loc 1 349 9 is_stmt 1 view .LVU308
 349:Core/Inc/ssd1306/ssd1306.c ****         if(count != approx_segments)
 1314              		.loc 1 349 14 is_stmt 0 view .LVU309
 1315 0118 0AF1010A 		add	r10, r10, #1
 1316              	.LVL138:
 350:Core/Inc/ssd1306/ssd1306.c ****         {
 1317              		.loc 1 350 9 is_stmt 1 view .LVU310
 350:Core/Inc/ssd1306/ssd1306.c ****         {
 1318              		.loc 1 350 11 is_stmt 0 view .LVU311
 1319 011c D045     		cmp	r8, r10
 1320 011e 9ED0     		beq	.L95
 352:Core/Inc/ssd1306/ssd1306.c ****         }
 1321              		.loc 1 352 13 is_stmt 1 view .LVU312
 352:Core/Inc/ssd1306/ssd1306.c ****         }
 1322              		.loc 1 352 19 is_stmt 0 view .LVU313
 1323 0120 5046     		mov	r0, r10
 1324 0122 FFF7FEFF 		bl	__aeabi_ui2f
 1325              	.LVL139:
 1326 0126 3946     		mov	r1, r7
 1327 0128 FFF7FEFF 		bl	__aeabi_fmul
 1328              	.LVL140:
 1329 012c FFF7FEFF 		bl	ssd1306_DegToRad
 1330              	.LVL141:
 352:Core/Inc/ssd1306/ssd1306.c ****         }
 1331              		.loc 1 352 19 view .LVU314
 1332 0130 98E7     		b	.L96
 1333              	.LVL142:
 1334              	.L99:
 361:Core/Inc/ssd1306/ssd1306.c ****     }
 362:Core/Inc/ssd1306/ssd1306.c ****     
 363:Core/Inc/ssd1306/ssd1306.c ****     return;
 364:Core/Inc/ssd1306/ssd1306.c **** }
 1335              		.loc 1 364 1 view .LVU315
 1336 0132 0BB0     		add	sp, sp, #44
 1337              	.LCFI25:
 1338              		.cfi_def_cfa_offset 36
 1339              		@ sp needed
 1340 0134 BDE8F08F 		pop	{r4, r5, r6, r7, r8, r9, r10, fp, pc}
 1341              	.LVL143:
 1342              	.L101:
 1343              		.loc 1 364 1 view .LVU316
 1344              		.align	2
 1345              	.L100:
 1346 0138 67666666 		.word	1717986919
ARM GAS  C:\Users\arada\AppData\Local\Temp\cc2X3IhP.s 			page 35


 1347 013c 176CC116 		.word	381774871
 1348              		.cfi_endproc
 1349              	.LFE83:
 1351              		.section	.text.ssd1306_DrawCircle,"ax",%progbits
 1352              		.align	1
 1353              		.global	ssd1306_DrawCircle
 1354              		.syntax unified
 1355              		.thumb
 1356              		.thumb_func
 1357              		.fpu softvfp
 1359              	ssd1306_DrawCircle:
 1360              	.LVL144:
 1361              	.LFB84:
 365:Core/Inc/ssd1306/ssd1306.c **** //Draw circle by Bresenhem's algorithm
 366:Core/Inc/ssd1306/ssd1306.c **** void ssd1306_DrawCircle(uint8_t par_x,uint8_t par_y,uint8_t par_r,SSD1306_COLOR par_color) {
 1362              		.loc 1 366 92 is_stmt 1 view -0
 1363              		.cfi_startproc
 1364              		@ args = 0, pretend = 0, frame = 8
 1365              		@ frame_needed = 0, uses_anonymous_args = 0
 1366              		.loc 1 366 92 is_stmt 0 view .LVU318
 1367 0000 2DE9F04F 		push	{r4, r5, r6, r7, r8, r9, r10, fp, lr}
 1368              	.LCFI26:
 1369              		.cfi_def_cfa_offset 36
 1370              		.cfi_offset 4, -36
 1371              		.cfi_offset 5, -32
 1372              		.cfi_offset 6, -28
 1373              		.cfi_offset 7, -24
 1374              		.cfi_offset 8, -20
 1375              		.cfi_offset 9, -16
 1376              		.cfi_offset 10, -12
 1377              		.cfi_offset 11, -8
 1378              		.cfi_offset 14, -4
 1379 0004 83B0     		sub	sp, sp, #12
 1380              	.LCFI27:
 1381              		.cfi_def_cfa_offset 48
 1382 0006 0090     		str	r0, [sp]
 1383 0008 0191     		str	r1, [sp, #4]
 1384 000a 9A46     		mov	r10, r3
 367:Core/Inc/ssd1306/ssd1306.c ****   int32_t x = -par_r;
 1385              		.loc 1 367 3 is_stmt 1 view .LVU319
 1386              	.LVL145:
 368:Core/Inc/ssd1306/ssd1306.c ****   int32_t y = 0;
 1387              		.loc 1 368 3 view .LVU320
 369:Core/Inc/ssd1306/ssd1306.c ****   int32_t err = 2 - 2 * par_r;
 1388              		.loc 1 369 3 view .LVU321
 370:Core/Inc/ssd1306/ssd1306.c ****   int32_t e2;
 1389              		.loc 1 370 3 view .LVU322
 371:Core/Inc/ssd1306/ssd1306.c **** 
 372:Core/Inc/ssd1306/ssd1306.c ****   if (par_x >= SSD1306_WIDTH || par_y >= SSD1306_HEIGHT) {
 1390              		.loc 1 372 3 view .LVU323
 1391              		.loc 1 372 6 is_stmt 0 view .LVU324
 1392 000c 10F0800F 		tst	r0, #128
 1393 0010 49D1     		bne	.L102
 1394 0012 5742     		rsbs	r7, r2, #0
 1395              	.LVL146:
 1396              		.loc 1 372 6 view .LVU325
 1397 0014 C2F10102 		rsb	r2, r2, #1
ARM GAS  C:\Users\arada\AppData\Local\Temp\cc2X3IhP.s 			page 36


 1398              	.LVL147:
 1399              		.loc 1 372 6 view .LVU326
 1400 0018 5400     		lsls	r4, r2, #1
 1401              		.loc 1 372 30 discriminator 1 view .LVU327
 1402 001a 3F29     		cmp	r1, #63
 1403 001c 43D8     		bhi	.L102
 368:Core/Inc/ssd1306/ssd1306.c ****   int32_t err = 2 - 2 * par_r;
 1404              		.loc 1 368 11 view .LVU328
 1405 001e 4FF0000B 		mov	fp, #0
 1406 0022 08E0     		b	.L106
 1407              	.LVL148:
 1408              	.L107:
 368:Core/Inc/ssd1306/ssd1306.c ****   int32_t err = 2 - 2 * par_r;
 1409              		.loc 1 368 11 view .LVU329
 1410 0024 2346     		mov	r3, r4
 1411              	.LVL149:
 1412              	.L104:
 373:Core/Inc/ssd1306/ssd1306.c ****     return;
 374:Core/Inc/ssd1306/ssd1306.c ****   }
 375:Core/Inc/ssd1306/ssd1306.c **** 
 376:Core/Inc/ssd1306/ssd1306.c ****     do {
 377:Core/Inc/ssd1306/ssd1306.c ****       ssd1306_DrawPixel(par_x - x, par_y + y, par_color);
 378:Core/Inc/ssd1306/ssd1306.c ****       ssd1306_DrawPixel(par_x + x, par_y + y, par_color);
 379:Core/Inc/ssd1306/ssd1306.c ****       ssd1306_DrawPixel(par_x + x, par_y - y, par_color);
 380:Core/Inc/ssd1306/ssd1306.c ****       ssd1306_DrawPixel(par_x - x, par_y - y, par_color);
 381:Core/Inc/ssd1306/ssd1306.c ****         e2 = err;
 382:Core/Inc/ssd1306/ssd1306.c ****         if (e2 <= y) {
 383:Core/Inc/ssd1306/ssd1306.c ****             y++;
 384:Core/Inc/ssd1306/ssd1306.c ****             err = err + (y * 2 + 1);
 385:Core/Inc/ssd1306/ssd1306.c ****             if(-x == y && e2 <= x) {
 386:Core/Inc/ssd1306/ssd1306.c ****               e2 = 0;
 387:Core/Inc/ssd1306/ssd1306.c ****             }
 388:Core/Inc/ssd1306/ssd1306.c ****             else
 389:Core/Inc/ssd1306/ssd1306.c ****             {
 390:Core/Inc/ssd1306/ssd1306.c ****               /*nothing to do*/
 391:Core/Inc/ssd1306/ssd1306.c ****             }
 392:Core/Inc/ssd1306/ssd1306.c ****         }
 393:Core/Inc/ssd1306/ssd1306.c ****         else
 394:Core/Inc/ssd1306/ssd1306.c ****         {
 395:Core/Inc/ssd1306/ssd1306.c ****           /*nothing to do*/
 396:Core/Inc/ssd1306/ssd1306.c ****         }
 1413              		.loc 1 396 9 is_stmt 1 view .LVU330
 397:Core/Inc/ssd1306/ssd1306.c ****         if(e2 > x) {
 1414              		.loc 1 397 9 view .LVU331
 1415              		.loc 1 397 11 is_stmt 0 view .LVU332
 1416 0026 A742     		cmp	r7, r4
 1417 0028 3BDA     		bge	.L109
 398:Core/Inc/ssd1306/ssd1306.c ****           x++;
 1418              		.loc 1 398 11 is_stmt 1 view .LVU333
 1419              		.loc 1 398 12 is_stmt 0 view .LVU334
 1420 002a 0137     		adds	r7, r7, #1
 1421              	.LVL150:
 399:Core/Inc/ssd1306/ssd1306.c ****           err = err + (x * 2 + 1);
 1422              		.loc 1 399 11 is_stmt 1 view .LVU335
 1423              		.loc 1 399 26 is_stmt 0 view .LVU336
 1424 002c 7C00     		lsls	r4, r7, #1
 1425              	.LVL151:
ARM GAS  C:\Users\arada\AppData\Local\Temp\cc2X3IhP.s 			page 37


 1426              		.loc 1 399 30 view .LVU337
 1427 002e 0134     		adds	r4, r4, #1
 1428              		.loc 1 399 15 view .LVU338
 1429 0030 1C44     		add	r4, r4, r3
 1430              	.LVL152:
 1431              	.L105:
 400:Core/Inc/ssd1306/ssd1306.c ****         }
 401:Core/Inc/ssd1306/ssd1306.c ****         else
 402:Core/Inc/ssd1306/ssd1306.c ****         {
 403:Core/Inc/ssd1306/ssd1306.c ****           /*nothing to do*/
 404:Core/Inc/ssd1306/ssd1306.c ****         }
 1432              		.loc 1 404 9 is_stmt 1 view .LVU339
 405:Core/Inc/ssd1306/ssd1306.c ****     } while(x <= 0);
 1433              		.loc 1 405 12 view .LVU340
 1434              		.loc 1 405 5 is_stmt 0 view .LVU341
 1435 0032 002F     		cmp	r7, #0
 1436 0034 37DC     		bgt	.L102
 1437              	.LVL153:
 1438              	.L106:
 376:Core/Inc/ssd1306/ssd1306.c ****       ssd1306_DrawPixel(par_x - x, par_y + y, par_color);
 1439              		.loc 1 376 5 is_stmt 1 view .LVU342
 377:Core/Inc/ssd1306/ssd1306.c ****       ssd1306_DrawPixel(par_x + x, par_y + y, par_color);
 1440              		.loc 1 377 7 view .LVU343
 1441 0036 FEB2     		uxtb	r6, r7
 1442 0038 009B     		ldr	r3, [sp]
 1443 003a A3EB0608 		sub	r8, r3, r6
 1444 003e 5FFA88F8 		uxtb	r8, r8
 1445 0042 5FFA8BF5 		uxtb	r5, fp
 1446 0046 019A     		ldr	r2, [sp, #4]
 1447 0048 05EB0209 		add	r9, r5, r2
 1448 004c 5FFA89F9 		uxtb	r9, r9
 1449 0050 5246     		mov	r2, r10
 1450 0052 4946     		mov	r1, r9
 1451 0054 4046     		mov	r0, r8
 1452 0056 FFF7FEFF 		bl	ssd1306_DrawPixel
 1453              	.LVL154:
 378:Core/Inc/ssd1306/ssd1306.c ****       ssd1306_DrawPixel(par_x + x, par_y - y, par_color);
 1454              		.loc 1 378 7 view .LVU344
 1455 005a 009B     		ldr	r3, [sp]
 1456 005c 1E44     		add	r6, r6, r3
 1457 005e F6B2     		uxtb	r6, r6
 1458 0060 5246     		mov	r2, r10
 1459 0062 4946     		mov	r1, r9
 1460 0064 3046     		mov	r0, r6
 1461 0066 FFF7FEFF 		bl	ssd1306_DrawPixel
 1462              	.LVL155:
 379:Core/Inc/ssd1306/ssd1306.c ****       ssd1306_DrawPixel(par_x - x, par_y - y, par_color);
 1463              		.loc 1 379 7 view .LVU345
 1464 006a 019A     		ldr	r2, [sp, #4]
 1465 006c 551B     		subs	r5, r2, r5
 1466 006e EDB2     		uxtb	r5, r5
 1467 0070 5246     		mov	r2, r10
 1468 0072 2946     		mov	r1, r5
 1469 0074 3046     		mov	r0, r6
 1470 0076 FFF7FEFF 		bl	ssd1306_DrawPixel
 1471              	.LVL156:
 380:Core/Inc/ssd1306/ssd1306.c ****         e2 = err;
ARM GAS  C:\Users\arada\AppData\Local\Temp\cc2X3IhP.s 			page 38


 1472              		.loc 1 380 7 view .LVU346
 1473 007a 5246     		mov	r2, r10
 1474 007c 2946     		mov	r1, r5
 1475 007e 4046     		mov	r0, r8
 1476 0080 FFF7FEFF 		bl	ssd1306_DrawPixel
 1477              	.LVL157:
 381:Core/Inc/ssd1306/ssd1306.c ****         if (e2 <= y) {
 1478              		.loc 1 381 9 view .LVU347
 382:Core/Inc/ssd1306/ssd1306.c ****             y++;
 1479              		.loc 1 382 9 view .LVU348
 382:Core/Inc/ssd1306/ssd1306.c ****             y++;
 1480              		.loc 1 382 12 is_stmt 0 view .LVU349
 1481 0084 A345     		cmp	fp, r4
 1482 0086 CDDB     		blt	.L107
 383:Core/Inc/ssd1306/ssd1306.c ****             err = err + (y * 2 + 1);
 1483              		.loc 1 383 13 is_stmt 1 view .LVU350
 383:Core/Inc/ssd1306/ssd1306.c ****             err = err + (y * 2 + 1);
 1484              		.loc 1 383 14 is_stmt 0 view .LVU351
 1485 0088 0BF1010B 		add	fp, fp, #1
 1486              	.LVL158:
 384:Core/Inc/ssd1306/ssd1306.c ****             if(-x == y && e2 <= x) {
 1487              		.loc 1 384 13 is_stmt 1 view .LVU352
 384:Core/Inc/ssd1306/ssd1306.c ****             if(-x == y && e2 <= x) {
 1488              		.loc 1 384 28 is_stmt 0 view .LVU353
 1489 008c 4FEA4B03 		lsl	r3, fp, #1
 384:Core/Inc/ssd1306/ssd1306.c ****             if(-x == y && e2 <= x) {
 1490              		.loc 1 384 32 view .LVU354
 1491 0090 0133     		adds	r3, r3, #1
 384:Core/Inc/ssd1306/ssd1306.c ****             if(-x == y && e2 <= x) {
 1492              		.loc 1 384 17 view .LVU355
 1493 0092 2344     		add	r3, r3, r4
 1494              	.LVL159:
 385:Core/Inc/ssd1306/ssd1306.c ****               e2 = 0;
 1495              		.loc 1 385 13 is_stmt 1 view .LVU356
 385:Core/Inc/ssd1306/ssd1306.c ****               e2 = 0;
 1496              		.loc 1 385 15 is_stmt 0 view .LVU357
 1497 0094 1BEB070F 		cmn	fp, r7
 1498 0098 C5D1     		bne	.L104
 385:Core/Inc/ssd1306/ssd1306.c ****               e2 = 0;
 1499              		.loc 1 385 24 discriminator 1 view .LVU358
 1500 009a A742     		cmp	r7, r4
 1501 009c C3DB     		blt	.L104
 386:Core/Inc/ssd1306/ssd1306.c ****             }
 1502              		.loc 1 386 18 view .LVU359
 1503 009e 0024     		movs	r4, #0
 1504              	.LVL160:
 386:Core/Inc/ssd1306/ssd1306.c ****             }
 1505              		.loc 1 386 18 view .LVU360
 1506 00a0 C1E7     		b	.L104
 1507              	.LVL161:
 1508              	.L109:
 386:Core/Inc/ssd1306/ssd1306.c ****             }
 1509              		.loc 1 386 18 view .LVU361
 1510 00a2 1C46     		mov	r4, r3
 1511              	.LVL162:
 386:Core/Inc/ssd1306/ssd1306.c ****             }
 1512              		.loc 1 386 18 view .LVU362
ARM GAS  C:\Users\arada\AppData\Local\Temp\cc2X3IhP.s 			page 39


 1513 00a4 C5E7     		b	.L105
 1514              	.LVL163:
 1515              	.L102:
 406:Core/Inc/ssd1306/ssd1306.c **** 
 407:Core/Inc/ssd1306/ssd1306.c ****     return;
 408:Core/Inc/ssd1306/ssd1306.c **** }
 1516              		.loc 1 408 1 view .LVU363
 1517 00a6 03B0     		add	sp, sp, #12
 1518              	.LCFI28:
 1519              		.cfi_def_cfa_offset 36
 1520              		@ sp needed
 1521 00a8 BDE8F08F 		pop	{r4, r5, r6, r7, r8, r9, r10, fp, pc}
 1522              		.cfi_endproc
 1523              	.LFE84:
 1525              		.section	.text.ssd1306_DrawRectangle,"ax",%progbits
 1526              		.align	1
 1527              		.global	ssd1306_DrawRectangle
 1528              		.syntax unified
 1529              		.thumb
 1530              		.thumb_func
 1531              		.fpu softvfp
 1533              	ssd1306_DrawRectangle:
 1534              	.LVL164:
 1535              	.LFB85:
 409:Core/Inc/ssd1306/ssd1306.c **** 
 410:Core/Inc/ssd1306/ssd1306.c **** //Draw rectangle
 411:Core/Inc/ssd1306/ssd1306.c **** void ssd1306_DrawRectangle(uint8_t x1, uint8_t y1, uint8_t x2, uint8_t y2, SSD1306_COLOR color) {
 1536              		.loc 1 411 97 is_stmt 1 view -0
 1537              		.cfi_startproc
 1538              		@ args = 4, pretend = 0, frame = 0
 1539              		@ frame_needed = 0, uses_anonymous_args = 0
 1540              		.loc 1 411 97 is_stmt 0 view .LVU365
 1541 0000 2DE9F041 		push	{r4, r5, r6, r7, r8, lr}
 1542              	.LCFI29:
 1543              		.cfi_def_cfa_offset 24
 1544              		.cfi_offset 4, -24
 1545              		.cfi_offset 5, -20
 1546              		.cfi_offset 6, -16
 1547              		.cfi_offset 7, -12
 1548              		.cfi_offset 8, -8
 1549              		.cfi_offset 14, -4
 1550 0004 82B0     		sub	sp, sp, #8
 1551              	.LCFI30:
 1552              		.cfi_def_cfa_offset 32
 1553 0006 0546     		mov	r5, r0
 1554 0008 0E46     		mov	r6, r1
 1555 000a 1746     		mov	r7, r2
 1556 000c 1C46     		mov	r4, r3
 1557 000e 9DF82080 		ldrb	r8, [sp, #32]	@ zero_extendqisi2
 412:Core/Inc/ssd1306/ssd1306.c ****   ssd1306_Line(x1,y1,x2,y1,color);
 1558              		.loc 1 412 3 is_stmt 1 view .LVU366
 1559 0012 CDF80080 		str	r8, [sp]
 1560 0016 0B46     		mov	r3, r1
 1561              	.LVL165:
 1562              		.loc 1 412 3 is_stmt 0 view .LVU367
 1563 0018 FFF7FEFF 		bl	ssd1306_Line
 1564              	.LVL166:
ARM GAS  C:\Users\arada\AppData\Local\Temp\cc2X3IhP.s 			page 40


 413:Core/Inc/ssd1306/ssd1306.c ****   ssd1306_Line(x2,y1,x2,y2,color);
 1565              		.loc 1 413 3 is_stmt 1 view .LVU368
 1566 001c CDF80080 		str	r8, [sp]
 1567 0020 2346     		mov	r3, r4
 1568 0022 3A46     		mov	r2, r7
 1569 0024 3146     		mov	r1, r6
 1570 0026 3846     		mov	r0, r7
 1571 0028 FFF7FEFF 		bl	ssd1306_Line
 1572              	.LVL167:
 414:Core/Inc/ssd1306/ssd1306.c ****   ssd1306_Line(x2,y2,x1,y2,color);
 1573              		.loc 1 414 3 view .LVU369
 1574 002c CDF80080 		str	r8, [sp]
 1575 0030 2346     		mov	r3, r4
 1576 0032 2A46     		mov	r2, r5
 1577 0034 2146     		mov	r1, r4
 1578 0036 3846     		mov	r0, r7
 1579 0038 FFF7FEFF 		bl	ssd1306_Line
 1580              	.LVL168:
 415:Core/Inc/ssd1306/ssd1306.c ****   ssd1306_Line(x1,y2,x1,y1,color);
 1581              		.loc 1 415 3 view .LVU370
 1582 003c CDF80080 		str	r8, [sp]
 1583 0040 3346     		mov	r3, r6
 1584 0042 2A46     		mov	r2, r5
 1585 0044 2146     		mov	r1, r4
 1586 0046 2846     		mov	r0, r5
 1587 0048 FFF7FEFF 		bl	ssd1306_Line
 1588              	.LVL169:
 416:Core/Inc/ssd1306/ssd1306.c **** 
 417:Core/Inc/ssd1306/ssd1306.c ****   return;
 1589              		.loc 1 417 3 view .LVU371
 418:Core/Inc/ssd1306/ssd1306.c **** }
 1590              		.loc 1 418 1 is_stmt 0 view .LVU372
 1591 004c 02B0     		add	sp, sp, #8
 1592              	.LCFI31:
 1593              		.cfi_def_cfa_offset 24
 1594              		@ sp needed
 1595 004e BDE8F081 		pop	{r4, r5, r6, r7, r8, pc}
 1596              		.loc 1 418 1 view .LVU373
 1597              		.cfi_endproc
 1598              	.LFE85:
 1600              		.section	.text.ssd1306_SetContrast,"ax",%progbits
 1601              		.align	1
 1602              		.global	ssd1306_SetContrast
 1603              		.syntax unified
 1604              		.thumb
 1605              		.thumb_func
 1606              		.fpu softvfp
 1608              	ssd1306_SetContrast:
 1609              	.LVL170:
 1610              	.LFB86:
 419:Core/Inc/ssd1306/ssd1306.c **** 
 420:Core/Inc/ssd1306/ssd1306.c **** void ssd1306_SetContrast(const uint8_t value) {
 1611              		.loc 1 420 47 is_stmt 1 view -0
 1612              		.cfi_startproc
 1613              		@ args = 0, pretend = 0, frame = 0
 1614              		@ frame_needed = 0, uses_anonymous_args = 0
 1615              		.loc 1 420 47 is_stmt 0 view .LVU375
ARM GAS  C:\Users\arada\AppData\Local\Temp\cc2X3IhP.s 			page 41


 1616 0000 10B5     		push	{r4, lr}
 1617              	.LCFI32:
 1618              		.cfi_def_cfa_offset 8
 1619              		.cfi_offset 4, -8
 1620              		.cfi_offset 14, -4
 1621 0002 0446     		mov	r4, r0
 421:Core/Inc/ssd1306/ssd1306.c ****     const uint8_t kSetContrastControlRegister = 0x81;
 1622              		.loc 1 421 5 is_stmt 1 view .LVU376
 1623              	.LVL171:
 422:Core/Inc/ssd1306/ssd1306.c ****     ssd1306_WriteCommand(kSetContrastControlRegister);
 1624              		.loc 1 422 5 view .LVU377
 1625 0004 8120     		movs	r0, #129
 1626              	.LVL172:
 1627              		.loc 1 422 5 is_stmt 0 view .LVU378
 1628 0006 FFF7FEFF 		bl	ssd1306_WriteCommand
 1629              	.LVL173:
 423:Core/Inc/ssd1306/ssd1306.c ****     ssd1306_WriteCommand(value);
 1630              		.loc 1 423 5 is_stmt 1 view .LVU379
 1631 000a 2046     		mov	r0, r4
 1632 000c FFF7FEFF 		bl	ssd1306_WriteCommand
 1633              	.LVL174:
 424:Core/Inc/ssd1306/ssd1306.c **** }
 1634              		.loc 1 424 1 is_stmt 0 view .LVU380
 1635 0010 10BD     		pop	{r4, pc}
 1636              		.cfi_endproc
 1637              	.LFE86:
 1639              		.section	.text.ssd1306_SetDisplayOn,"ax",%progbits
 1640              		.align	1
 1641              		.global	ssd1306_SetDisplayOn
 1642              		.syntax unified
 1643              		.thumb
 1644              		.thumb_func
 1645              		.fpu softvfp
 1647              	ssd1306_SetDisplayOn:
 1648              	.LVL175:
 1649              	.LFB87:
 425:Core/Inc/ssd1306/ssd1306.c **** 
 426:Core/Inc/ssd1306/ssd1306.c **** void ssd1306_SetDisplayOn(const uint8_t on) {
 1650              		.loc 1 426 45 is_stmt 1 view -0
 1651              		.cfi_startproc
 1652              		@ args = 0, pretend = 0, frame = 0
 1653              		@ frame_needed = 0, uses_anonymous_args = 0
 1654              		.loc 1 426 45 is_stmt 0 view .LVU382
 1655 0000 08B5     		push	{r3, lr}
 1656              	.LCFI33:
 1657              		.cfi_def_cfa_offset 8
 1658              		.cfi_offset 3, -8
 1659              		.cfi_offset 14, -4
 427:Core/Inc/ssd1306/ssd1306.c ****     uint8_t value;
 1660              		.loc 1 427 5 is_stmt 1 view .LVU383
 428:Core/Inc/ssd1306/ssd1306.c ****     if (on) {
 1661              		.loc 1 428 5 view .LVU384
 1662              		.loc 1 428 8 is_stmt 0 view .LVU385
 1663 0002 30B1     		cbz	r0, .L116
 429:Core/Inc/ssd1306/ssd1306.c ****         value = 0xAF;   // Display on
 1664              		.loc 1 429 9 is_stmt 1 view .LVU386
 1665              	.LVL176:
ARM GAS  C:\Users\arada\AppData\Local\Temp\cc2X3IhP.s 			page 42


 430:Core/Inc/ssd1306/ssd1306.c ****         SSD1306.DisplayOn = 1;
 1666              		.loc 1 430 9 view .LVU387
 1667              		.loc 1 430 27 is_stmt 0 view .LVU388
 1668 0004 054B     		ldr	r3, .L119
 1669 0006 0122     		movs	r2, #1
 1670 0008 9A71     		strb	r2, [r3, #6]
 429:Core/Inc/ssd1306/ssd1306.c ****         value = 0xAF;   // Display on
 1671              		.loc 1 429 15 view .LVU389
 1672 000a AF20     		movs	r0, #175
 1673              	.LVL177:
 1674              	.L117:
 431:Core/Inc/ssd1306/ssd1306.c ****     } else {
 432:Core/Inc/ssd1306/ssd1306.c ****         value = 0xAE;   // Display off
 433:Core/Inc/ssd1306/ssd1306.c ****         SSD1306.DisplayOn = 0;
 434:Core/Inc/ssd1306/ssd1306.c ****     }
 435:Core/Inc/ssd1306/ssd1306.c ****     ssd1306_WriteCommand(value);
 1675              		.loc 1 435 5 is_stmt 1 view .LVU390
 1676 000c FFF7FEFF 		bl	ssd1306_WriteCommand
 1677              	.LVL178:
 436:Core/Inc/ssd1306/ssd1306.c **** }
 1678              		.loc 1 436 1 is_stmt 0 view .LVU391
 1679 0010 08BD     		pop	{r3, pc}
 1680              	.LVL179:
 1681              	.L116:
 432:Core/Inc/ssd1306/ssd1306.c ****         SSD1306.DisplayOn = 0;
 1682              		.loc 1 432 9 is_stmt 1 view .LVU392
 433:Core/Inc/ssd1306/ssd1306.c ****     }
 1683              		.loc 1 433 9 view .LVU393
 433:Core/Inc/ssd1306/ssd1306.c ****     }
 1684              		.loc 1 433 27 is_stmt 0 view .LVU394
 1685 0012 024B     		ldr	r3, .L119
 1686 0014 0022     		movs	r2, #0
 1687 0016 9A71     		strb	r2, [r3, #6]
 432:Core/Inc/ssd1306/ssd1306.c ****         SSD1306.DisplayOn = 0;
 1688              		.loc 1 432 15 view .LVU395
 1689 0018 AE20     		movs	r0, #174
 1690              	.LVL180:
 432:Core/Inc/ssd1306/ssd1306.c ****         SSD1306.DisplayOn = 0;
 1691              		.loc 1 432 15 view .LVU396
 1692 001a F7E7     		b	.L117
 1693              	.L120:
 1694              		.align	2
 1695              	.L119:
 1696 001c 00000000 		.word	.LANCHOR1
 1697              		.cfi_endproc
 1698              	.LFE87:
 1700              		.section	.text.ssd1306_Init,"ax",%progbits
 1701              		.align	1
 1702              		.global	ssd1306_Init
 1703              		.syntax unified
 1704              		.thumb
 1705              		.thumb_func
 1706              		.fpu softvfp
 1708              	ssd1306_Init:
 1709              	.LFB72:
  45:Core/Inc/ssd1306/ssd1306.c ****     // Reset OLED
 1710              		.loc 1 45 25 is_stmt 1 view -0
ARM GAS  C:\Users\arada\AppData\Local\Temp\cc2X3IhP.s 			page 43


 1711              		.cfi_startproc
 1712              		@ args = 0, pretend = 0, frame = 0
 1713              		@ frame_needed = 0, uses_anonymous_args = 0
 1714 0000 08B5     		push	{r3, lr}
 1715              	.LCFI34:
 1716              		.cfi_def_cfa_offset 8
 1717              		.cfi_offset 3, -8
 1718              		.cfi_offset 14, -4
  47:Core/Inc/ssd1306/ssd1306.c **** 
 1719              		.loc 1 47 5 view .LVU398
 1720 0002 FFF7FEFF 		bl	ssd1306_Reset
 1721              	.LVL181:
  50:Core/Inc/ssd1306/ssd1306.c **** 
 1722              		.loc 1 50 5 view .LVU399
 1723 0006 6420     		movs	r0, #100
 1724 0008 FFF7FEFF 		bl	HAL_Delay
 1725              	.LVL182:
  53:Core/Inc/ssd1306/ssd1306.c **** 
 1726              		.loc 1 53 5 view .LVU400
 1727 000c 0020     		movs	r0, #0
 1728 000e FFF7FEFF 		bl	ssd1306_SetDisplayOn
 1729              	.LVL183:
  55:Core/Inc/ssd1306/ssd1306.c ****     ssd1306_WriteCommand(0x00); // 00b,Horizontal Addressing Mode; 01b,Vertical Addressing Mode;
 1730              		.loc 1 55 5 view .LVU401
 1731 0012 2020     		movs	r0, #32
 1732 0014 FFF7FEFF 		bl	ssd1306_WriteCommand
 1733              	.LVL184:
  56:Core/Inc/ssd1306/ssd1306.c ****                                 // 10b,Page Addressing Mode (RESET); 11b,Invalid
 1734              		.loc 1 56 5 view .LVU402
 1735 0018 0020     		movs	r0, #0
 1736 001a FFF7FEFF 		bl	ssd1306_WriteCommand
 1737              	.LVL185:
  59:Core/Inc/ssd1306/ssd1306.c **** 
 1738              		.loc 1 59 5 view .LVU403
 1739 001e B020     		movs	r0, #176
 1740 0020 FFF7FEFF 		bl	ssd1306_WriteCommand
 1741              	.LVL186:
  64:Core/Inc/ssd1306/ssd1306.c **** #endif
 1742              		.loc 1 64 5 view .LVU404
 1743 0024 C820     		movs	r0, #200
 1744 0026 FFF7FEFF 		bl	ssd1306_WriteCommand
 1745              	.LVL187:
  67:Core/Inc/ssd1306/ssd1306.c ****     ssd1306_WriteCommand(0x10); //---set high column address
 1746              		.loc 1 67 5 view .LVU405
 1747 002a 0220     		movs	r0, #2
 1748 002c FFF7FEFF 		bl	ssd1306_WriteCommand
 1749              	.LVL188:
  68:Core/Inc/ssd1306/ssd1306.c **** 
 1750              		.loc 1 68 5 view .LVU406
 1751 0030 1020     		movs	r0, #16
 1752 0032 FFF7FEFF 		bl	ssd1306_WriteCommand
 1753              	.LVL189:
  70:Core/Inc/ssd1306/ssd1306.c **** 
 1754              		.loc 1 70 5 view .LVU407
 1755 0036 4020     		movs	r0, #64
 1756 0038 FFF7FEFF 		bl	ssd1306_WriteCommand
 1757              	.LVL190:
ARM GAS  C:\Users\arada\AppData\Local\Temp\cc2X3IhP.s 			page 44


  75:Core/Inc/ssd1306/ssd1306.c **** #endif
 1758              		.loc 1 75 5 view .LVU408
 1759 003c A120     		movs	r0, #161
 1760 003e FFF7FEFF 		bl	ssd1306_WriteCommand
 1761              	.LVL191:
  81:Core/Inc/ssd1306/ssd1306.c **** #endif
 1762              		.loc 1 81 5 view .LVU409
 1763 0042 A620     		movs	r0, #166
 1764 0044 FFF7FEFF 		bl	ssd1306_WriteCommand
 1765              	.LVL192:
  89:Core/Inc/ssd1306/ssd1306.c **** #endif
 1766              		.loc 1 89 5 view .LVU410
 1767 0048 A820     		movs	r0, #168
 1768 004a FFF7FEFF 		bl	ssd1306_WriteCommand
 1769              	.LVL193:
  95:Core/Inc/ssd1306/ssd1306.c **** #elif (SSD1306_HEIGHT == 128)
 1770              		.loc 1 95 5 view .LVU411
 1771 004e 3F20     		movs	r0, #63
 1772 0050 FFF7FEFF 		bl	ssd1306_WriteCommand
 1773              	.LVL194:
 102:Core/Inc/ssd1306/ssd1306.c **** 
 1774              		.loc 1 102 5 view .LVU412
 1775 0054 A420     		movs	r0, #164
 1776 0056 FFF7FEFF 		bl	ssd1306_WriteCommand
 1777              	.LVL195:
 104:Core/Inc/ssd1306/ssd1306.c ****     ssd1306_WriteCommand(0x00); //-not offset
 1778              		.loc 1 104 5 view .LVU413
 1779 005a D320     		movs	r0, #211
 1780 005c FFF7FEFF 		bl	ssd1306_WriteCommand
 1781              	.LVL196:
 105:Core/Inc/ssd1306/ssd1306.c **** 
 1782              		.loc 1 105 5 view .LVU414
 1783 0060 0020     		movs	r0, #0
 1784 0062 FFF7FEFF 		bl	ssd1306_WriteCommand
 1785              	.LVL197:
 107:Core/Inc/ssd1306/ssd1306.c ****     ssd1306_WriteCommand(0xF0); //--set divide ratio
 1786              		.loc 1 107 5 view .LVU415
 1787 0066 D520     		movs	r0, #213
 1788 0068 FFF7FEFF 		bl	ssd1306_WriteCommand
 1789              	.LVL198:
 108:Core/Inc/ssd1306/ssd1306.c **** 
 1790              		.loc 1 108 5 view .LVU416
 1791 006c F020     		movs	r0, #240
 1792 006e FFF7FEFF 		bl	ssd1306_WriteCommand
 1793              	.LVL199:
 110:Core/Inc/ssd1306/ssd1306.c ****     ssd1306_WriteCommand(0xF1); //
 1794              		.loc 1 110 5 view .LVU417
 1795 0072 D920     		movs	r0, #217
 1796 0074 FFF7FEFF 		bl	ssd1306_WriteCommand
 1797              	.LVL200:
 111:Core/Inc/ssd1306/ssd1306.c **** 
 1798              		.loc 1 111 5 view .LVU418
 1799 0078 F120     		movs	r0, #241
 1800 007a FFF7FEFF 		bl	ssd1306_WriteCommand
 1801              	.LVL201:
 113:Core/Inc/ssd1306/ssd1306.c **** 
 1802              		.loc 1 113 5 view .LVU419
ARM GAS  C:\Users\arada\AppData\Local\Temp\cc2X3IhP.s 			page 45


 1803 007e CF20     		movs	r0, #207
 1804 0080 FFF7FEFF 		bl	ssd1306_SetContrast
 1805              	.LVL202:
 115:Core/Inc/ssd1306/ssd1306.c **** #if (SSD1306_HEIGHT == 32)
 1806              		.loc 1 115 5 view .LVU420
 1807 0084 DA20     		movs	r0, #218
 1808 0086 FFF7FEFF 		bl	ssd1306_WriteCommand
 1809              	.LVL203:
 119:Core/Inc/ssd1306/ssd1306.c **** #elif (SSD1306_HEIGHT == 128)
 1810              		.loc 1 119 5 view .LVU421
 1811 008a 1220     		movs	r0, #18
 1812 008c FFF7FEFF 		bl	ssd1306_WriteCommand
 1813              	.LVL204:
 127:Core/Inc/ssd1306/ssd1306.c ****     ssd1306_WriteCommand(0x40); //0x20,0.77xVcc
 1814              		.loc 1 127 5 view .LVU422
 1815 0090 DB20     		movs	r0, #219
 1816 0092 FFF7FEFF 		bl	ssd1306_WriteCommand
 1817              	.LVL205:
 128:Core/Inc/ssd1306/ssd1306.c **** 
 1818              		.loc 1 128 5 view .LVU423
 1819 0096 4020     		movs	r0, #64
 1820 0098 FFF7FEFF 		bl	ssd1306_WriteCommand
 1821              	.LVL206:
 130:Core/Inc/ssd1306/ssd1306.c ****     ssd1306_WriteCommand(0x14); //
 1822              		.loc 1 130 5 view .LVU424
 1823 009c 8D20     		movs	r0, #141
 1824 009e FFF7FEFF 		bl	ssd1306_WriteCommand
 1825              	.LVL207:
 131:Core/Inc/ssd1306/ssd1306.c ****     ssd1306_SetDisplayOn(1); //--turn on SSD1306 panel
 1826              		.loc 1 131 5 view .LVU425
 1827 00a2 1420     		movs	r0, #20
 1828 00a4 FFF7FEFF 		bl	ssd1306_WriteCommand
 1829              	.LVL208:
 132:Core/Inc/ssd1306/ssd1306.c **** 
 1830              		.loc 1 132 5 view .LVU426
 1831 00a8 0120     		movs	r0, #1
 1832 00aa FFF7FEFF 		bl	ssd1306_SetDisplayOn
 1833              	.LVL209:
 135:Core/Inc/ssd1306/ssd1306.c ****     
 1834              		.loc 1 135 5 view .LVU427
 1835 00ae 0020     		movs	r0, #0
 1836 00b0 FFF7FEFF 		bl	ssd1306_Fill
 1837              	.LVL210:
 138:Core/Inc/ssd1306/ssd1306.c ****     
 1838              		.loc 1 138 5 view .LVU428
 1839 00b4 FFF7FEFF 		bl	ssd1306_UpdateScreen
 1840              	.LVL211:
 141:Core/Inc/ssd1306/ssd1306.c ****     SSD1306.CurrentY = 0;
 1841              		.loc 1 141 5 view .LVU429
 141:Core/Inc/ssd1306/ssd1306.c ****     SSD1306.CurrentY = 0;
 1842              		.loc 1 141 22 is_stmt 0 view .LVU430
 1843 00b8 034B     		ldr	r3, .L123
 1844 00ba 0022     		movs	r2, #0
 1845 00bc 1A80     		strh	r2, [r3]	@ movhi
 142:Core/Inc/ssd1306/ssd1306.c ****     
 1846              		.loc 1 142 5 is_stmt 1 view .LVU431
 142:Core/Inc/ssd1306/ssd1306.c ****     
ARM GAS  C:\Users\arada\AppData\Local\Temp\cc2X3IhP.s 			page 46


 1847              		.loc 1 142 22 is_stmt 0 view .LVU432
 1848 00be 5A80     		strh	r2, [r3, #2]	@ movhi
 144:Core/Inc/ssd1306/ssd1306.c **** }
 1849              		.loc 1 144 5 is_stmt 1 view .LVU433
 144:Core/Inc/ssd1306/ssd1306.c **** }
 1850              		.loc 1 144 25 is_stmt 0 view .LVU434
 1851 00c0 0122     		movs	r2, #1
 1852 00c2 5A71     		strb	r2, [r3, #5]
 145:Core/Inc/ssd1306/ssd1306.c **** 
 1853              		.loc 1 145 1 view .LVU435
 1854 00c4 08BD     		pop	{r3, pc}
 1855              	.L124:
 1856 00c6 00BF     		.align	2
 1857              	.L123:
 1858 00c8 00000000 		.word	.LANCHOR1
 1859              		.cfi_endproc
 1860              	.LFE72:
 1862              		.section	.text.ssd1306_GetDisplayOn,"ax",%progbits
 1863              		.align	1
 1864              		.global	ssd1306_GetDisplayOn
 1865              		.syntax unified
 1866              		.thumb
 1867              		.thumb_func
 1868              		.fpu softvfp
 1870              	ssd1306_GetDisplayOn:
 1871              	.LFB88:
 437:Core/Inc/ssd1306/ssd1306.c **** 
 438:Core/Inc/ssd1306/ssd1306.c **** uint8_t ssd1306_GetDisplayOn() {
 1872              		.loc 1 438 32 is_stmt 1 view -0
 1873              		.cfi_startproc
 1874              		@ args = 0, pretend = 0, frame = 0
 1875              		@ frame_needed = 0, uses_anonymous_args = 0
 1876              		@ link register save eliminated.
 439:Core/Inc/ssd1306/ssd1306.c ****     return SSD1306.DisplayOn;
 1877              		.loc 1 439 5 view .LVU437
 440:Core/Inc/ssd1306/ssd1306.c **** }
 1878              		.loc 1 440 1 is_stmt 0 view .LVU438
 1879 0000 014B     		ldr	r3, .L126
 1880 0002 9879     		ldrb	r0, [r3, #6]	@ zero_extendqisi2
 1881 0004 7047     		bx	lr
 1882              	.L127:
 1883 0006 00BF     		.align	2
 1884              	.L126:
 1885 0008 00000000 		.word	.LANCHOR1
 1886              		.cfi_endproc
 1887              	.LFE88:
 1889              		.section	.bss.SSD1306,"aw",%nobits
 1890              		.align	2
 1891              		.set	.LANCHOR1,. + 0
 1894              	SSD1306:
 1895 0000 00000000 		.space	8
 1895      00000000 
 1896              		.section	.bss.SSD1306_Buffer,"aw",%nobits
 1897              		.align	2
 1898              		.set	.LANCHOR0,. + 0
 1901              	SSD1306_Buffer:
 1902 0000 00000000 		.space	1024
ARM GAS  C:\Users\arada\AppData\Local\Temp\cc2X3IhP.s 			page 47


 1902      00000000 
 1902      00000000 
 1902      00000000 
 1902      00000000 
 1903              		.text
 1904              	.Letext0:
 1905              		.file 2 "c:\\dev\\gcc-arm-none-eabi-9-2020-q2-update-win32\\lib\\gcc\\arm-none-eabi\\9.3.1\\includ
 1906              		.file 3 "c:\\dev\\gcc-arm-none-eabi-9-2020-q2-update-win32\\arm-none-eabi\\include\\machine\\_defa
 1907              		.file 4 "c:\\dev\\gcc-arm-none-eabi-9-2020-q2-update-win32\\arm-none-eabi\\include\\sys\\_stdint.h
 1908              		.file 5 "Drivers/CMSIS/Include/core_cm3.h"
 1909              		.file 6 "Drivers/CMSIS/Device/ST/STM32F1xx/Include/system_stm32f1xx.h"
 1910              		.file 7 "Drivers/CMSIS/Device/ST/STM32F1xx/Include/stm32f103xb.h"
 1911              		.file 8 "Drivers/STM32F1xx_HAL_Driver/Inc/stm32f1xx_hal_gpio.h"
 1912              		.file 9 "Drivers/STM32F1xx_HAL_Driver/Inc/stm32f1xx_hal.h"
 1913              		.file 10 "Core/Inc/ssd1306/ssd1306_fonts.h"
 1914              		.file 11 "Core/Inc/ssd1306/ssd1306.h"
 1915              		.file 12 "c:\\dev\\gcc-arm-none-eabi-9-2020-q2-update-win32\\arm-none-eabi\\include\\sys\\_types.h
 1916              		.file 13 "c:\\dev\\gcc-arm-none-eabi-9-2020-q2-update-win32\\arm-none-eabi\\include\\sys\\reent.h"
 1917              		.file 14 "c:\\dev\\gcc-arm-none-eabi-9-2020-q2-update-win32\\arm-none-eabi\\include\\sys\\lock.h"
 1918              		.file 15 "c:\\dev\\gcc-arm-none-eabi-9-2020-q2-update-win32\\arm-none-eabi\\include\\math.h"
 1919              		.file 16 "c:\\dev\\gcc-arm-none-eabi-9-2020-q2-update-win32\\arm-none-eabi\\include\\stdlib.h"
 1920              		.file 17 "Core/Inc/i2c_sw\\i2c_sw.h"
 1921              		.file 18 "c:\\dev\\gcc-arm-none-eabi-9-2020-q2-update-win32\\arm-none-eabi\\include\\stdio.h"
 1922              		.file 19 "<built-in>"
ARM GAS  C:\Users\arada\AppData\Local\Temp\cc2X3IhP.s 			page 48

